(lp0
(irdialog
region
p1
(dp2
S'color'
p3
S'#999999'
p4
sS'octave11'
p5
I240
sS'num'
p6
I1
sS'den'
p7
I1
sba.(lp0
I0
a(iodialog
instrument
p1
(dp2
S'color'
p3
S'#069999'
p4
sS'solo'
p5
I0
sS'outlist'
p6
(lp7
(iodialog
csdout
p8
(dp9
S'volume'
p10
I0
sg5
I0
sS'string'
p11
S'33  time dur  db freq'
p12
sS'instnum'
p13
S'33'
p14
sS'pfields'
p15
S'db freq'
p16
sS'mute'
p17
I0
sS'instrument'
p18
g1
sbasS'number'
p19
I1
sg17
I0
sba(iodialog
instrument
p20
(dp21
g3
S'#999916'
p22
sg5
I0
sg6
(lp23
(iodialog
csdout
p24
(dp25
g10
I0
sg5
I0
sg11
S'22  time dur  db freq'
p26
sg13
S'22'
p27
sg15
g16
sg17
I0
sg18
g20
sbasg19
I2
sg17
I0
sba(iodialog
instrument
p28
(dp29
g3
S'#26db51'
p30
sg5
I0
sg6
(lp31
(iodialog
csdout
p32
(dp33
g10
I0
sg5
I0
sg11
S'11  time dur  db freq'
p34
sg13
S'11'
p35
sg15
g16
sg17
I0
sg18
g28
sbasg19
I3
sg17
I0
sba.(lp0
(I1
I0
F0.0
F1.0
I72
I9
I16
I0
I0
tp1
a(I1
I0
F0.0
F0.96666666666666667
I72
I3
I8
I0
I0
tp2
a(I1
I0
F1.6666666666666667
F0.33333333333333331
I72
I3
I8
I0
I0
tp3
a(I1
I0
F2.0
F1.0
I72
I9
I16
I0
I0
tp4
a(I1
I0
F2.0
F1.0
I72
I3
I8
I0
I0
tp5
a(I1
I0
F4.0
F0.69999999999999996
I72
I9
I16
I0
I0
tp6
a(I1
I0
F4.666666666666667
F0.33333333333333331
I72
I3
I8
I0
I0
tp7
a(I1
I0
F5.0
F1.0
I72
I9
I10
I0
I0
tp8
a(I1
I0
F6.666666666666667
F0.33333333333333331
I72
I27
I64
I0
I0
tp9
a(I1
I0
F7.0
F1.0
I72
I33
I32
I0
I0
tp10
a(I1
I0
F8.0
F1.0
I72
I3
I8
I0
I0
tp11
a(I1
I0
F8.0
F1.0
I72
I9
I16
I0
I0
tp12
a(I1
I0
F9.6666666666666661
F0.33333333333333331
I72
I3
I8
I0
I0
tp13
a(I1
I0
F10.0
F1.0
I72
I3
I8
I0
I0
tp14
a(I1
I0
F10.0
F1.0
I72
I9
I16
I0
I0
tp15
a(I1
I0
F12.0
F0.69999999999999996
I72
I9
I16
I0
I0
tp16
a(I1
I0
F12.666666666666666
F0.33333333333333331
I72
I3
I8
I0
I0
tp17
a(I1
I0
F13.0
F1.0
I72
I9
I10
I0
I0
tp18
a(I2
I0
F13.0
F1.9666666666666666
I72
I12
I5
I0
I0
tp19
a(I1
I0
F14.666666666666666
F0.33333333333333331
I72
I27
I64
I0
I0
tp20
a(I1
I0
F15.0
F1.0
I72
I33
I32
I0
I0
tp21
a(I2
I0
F15.0
F0.96666666666666667
I72
I33
I16
I0
I0
tp22
a(I1
I0
F16.0
F1.0
I72
I9
I16
I0
I0
tp23
a(I1
I0
F16.0
F0.96666666666666667
I72
I3
I8
I0
I0
tp24
a(I2
I0
F16.0
F2.0
I72
I21
I10
I0
I0
tp25
a(I3
I0
F16.0
F0.96666666666666667
I72
I21
I16
I0
I0
tp26
a(I3
I0
F16.0
F1.0
I72
I7
I4
I0
I0
tp27
a(I1
I0
F17.666666666666668
F0.33333333333333331
I72
I3
I8
I0
I0
tp28
a(I3
I0
F17.666666666666668
F0.33333333333333331
I72
I7
I4
I0
I0
tp29
a(I3
I0
F18.0
F1.0
I72
I21
I16
I0
I0
tp30
a(I1
I0
F18.0
F1.0
I72
I3
I8
I0
I0
tp31
a(I3
I0
F18.0
F1.0
I72
I7
I4
I0
I0
tp32
a(I1
I0
F18.0
F1.0
I72
I9
I16
I0
I0
tp33
a(I2
I0
F19.0
F1.9666666666666666
I72
I21
I8
I0
I0
tp34
a(I1
I0
F20.0
F0.69999999999999996
I72
I9
I16
I0
I0
tp35
a(I1
I0
F20.666666666666668
F0.33333333333333331
I72
I3
I8
I0
I0
tp36
a(I1
I0
F21.0
F1.0
I72
I9
I10
I0
I0
tp37
a(I2
I0
F21.0
F1.9666666666666666
I72
I12
I5
I0
I0
tp38
a(I1
I0
F22.666666666666668
F0.33333333333333331
I72
I27
I64
I0
I0
tp39
a(I1
I0
F23.0
F1.0
I72
I33
I32
I0
I0
tp40
a(I2
I0
F23.0
F1.0
I72
I39
I16
I0
I0
tp41
a(I2
I0
F23.0
F0.96666666666666667
I72
I33
I16
I0
I0
tp42
a(I2
I0
F24.0
F2.0
I72
I21
I10
I0
I0
tp43
a(I1
I0
F24.0
F1.0
I72
I9
I16
I0
I0
tp44
a(I3
I0
F24.0
F1.0333333333333334
I72
I7
I4
I0
I0
tp45
a(I3
I0
F24.0
F1.0
I72
I21
I16
I0
I0
tp46
a(I2
I0
F24.0
F2.0
I72
I5
I2
I0
I0
tp47
a(I1
I0
F24.0
F1.0
I72
I3
I8
I0
I0
tp48
a(I3
I0
F25.666666666666668
F0.33333333333333331
I72
I7
I4
I0
I0
tp49
a(I1
I0
F25.666666666666668
F0.33333333333333331
I72
I3
I8
I0
I0
tp50
a(I1
I0
F26.0
F1.0
I72
I3
I8
I0
I0
tp51
a(I3
I0
F26.0
F1.0
I72
I21
I16
I0
I0
tp52
a(I3
I0
F26.0
F1.0
I72
I7
I4
I0
I0
tp53
a(I1
I0
F26.0
F1.0
I72
I9
I16
I0
I0
tp54
a(I2
I0
F26.666666666666668
F3.2999999999999998
I72
I63
I16
I0
I0
tp55
a(I1
I0
F28.0
F0.69999999999999996
I72
I9
I16
I0
I0
tp56
a(I1
I0
F28.666666666666668
F0.33333333333333331
I72
I3
I8
I0
I0
tp57
a(I2
I0
F29.0
F2.9333333333333331
I72
I14
I5
I0
I0
tp58
a(I1
I0
F29.0
F1.0
I72
I9
I10
I0
I0
tp59
a(I1
I0
F30.666666666666668
F0.33333333333333331
I72
I27
I64
I0
I0
tp60
a(I2
I0
F30.666666666666668
F1.3333333333333333
I72
I39
I16
I0
I0
tp61
a(I1
I0
F31.0
F1.0
I72
I33
I32
I0
I0
tp62
a(I3
I0
F31.666666666666668
F0.33333333333333331
I72
I21
I16
I0
I0
tp63
a(I3
I0
F32.0
F0.96666666666666667
I72
I7
I4
I0
I0
tp64
a(I2
I0
F32.0
F2.0
I72
I5
I2
I0
I0
tp65
a(I1
I0
F32.0
F0.96666666666666667
I72
I3
I8
I0
I0
tp66
a(I1
I0
F32.666666666666664
F1.3
I72
I9
I16
I0
I0
tp67
a(I3
I0
F33.0
F1.0
I72
I21
I16
I0
I0
tp68
a(I3
I0
F34.0
F0.66666666666666663
I72
I1
I1
I0
I0
tp69
a(I1
I0
F34.0
F1.0
I72
I3
I8
I0
I0
tp70
a(I3
I0
F34.666666666666664
F2.0
I72
I9
I8
I0
I0
tp71
a(I3
I0
F34.666666666666664
F2.2666666666666666
I72
I7
I8
I0
I0
tp72
a(I1
I0
F34.666666666666664
F1.2666666666666666
I72
I9
I16
I0
I0
tp73
a(I2
I0
F35.0
F2.0
I72
I63
I32
I0
I0
tp74
a(I2
I0
F35.0
F3.0
I72
I9
I4
I0
I0
tp75
a(I1
I0
F36.666666666666664
F0.33333333333333331
I72
I3
I8
I0
I0
tp76
a(I2
I0
F37.0
F1.6666666666666667
I72
I21
I10
I0
I0
tp77
a(I1
I0
F37.0
F0.66666666666666663
I72
I9
I10
I0
I0
tp78
a(I1
I0
F37.666666666666664
F0.36666666666666664
I72
I3
I8
I0
I0
tp79
a(I2
I0
F38.0
F1.9666666666666666
I72
I39
I16
I0
I0
tp80
a(I2
I0
F38.666666666666664
F1.2666666666666666
I72
I63
I32
I0
I0
tp81
a(I1
I0
F38.666666666666664
F0.40000000000000002
I72
I27
I64
I0
I0
tp82
a(I1
I0
F39.0
F1.0
I72
I27
I80
I0
I0
tp83
a(I2
I0
F40.0
F2.0
I72
I21
I8
I0
I0
tp84
a(I2
I0
F40.0
F2.9666666666666668
I72
I9
I4
I0
I0
tp85
a(I1
I0
F40.0
F1.0
I72
I9
I16
I0
I0
tp86
a(I3
I0
F40.0
F0.66666666666666663
I72
I21
I16
I0
I0
tp87
a(I3
I0
F40.0
F0.66666666666666663
I72
I7
I4
I0
I0
tp88
a(I1
I0
F40.0
F1.0
I72
I3
I8
I0
I0
tp89
a(I3
I0
F40.666666666666664
F0.33333333333333331
I72
I21
I16
I0
I0
tp90
a(I3
I0
F40.666666666666664
F0.33333333333333331
I72
I7
I4
I0
I0
tp91
a(I3
I0
F41.0
F0.66666666666666663
I72
I7
I4
I0
I0
tp92
a(I3
I0
F41.0
F0.66666666666666663
I72
I21
I16
I0
I0
tp93
a(I1
I0
F41.666666666666664
F0.33333333333333331
I72
I3
I8
I0
I0
tp94
a(I3
I0
F41.666666666666664
F0.33333333333333331
I72
I7
I4
I0
I0
tp95
a(I3
I0
F41.666666666666664
F0.33333333333333331
I72
I21
I16
I0
I0
tp96
a(I1
I0
F42.0
F1.0
I72
I9
I16
I0
I0
tp97
a(I3
I0
F42.0
F1.0
I72
I21
I16
I0
I0
tp98
a(I3
I0
F42.0
F1.0
I72
I7
I4
I0
I0
tp99
a(I1
I0
F42.0
F1.0
I72
I3
I8
I0
I0
tp100
a(I2
I0
F42.666666666666664
F2.3333333333333335
I72
I63
I16
I0
I0
tp101
a(I2
I0
F43.0
F1.9666666666666666
I72
I21
I8
I0
I0
tp102
a(I1
I0
F44.0
F0.69999999999999996
I72
I9
I16
I0
I0
tp103
a(I1
I0
F44.666666666666664
F0.33333333333333331
I72
I3
I8
I0
I0
tp104
a(I1
I0
F45.0
F1.0
I72
I9
I10
I0
I0
tp105
a(I2
I0
F45.0
F2.0
I72
I14
I5
I0
I0
tp106
a(I2
I0
F45.0
F1.9666666666666666
I72
I12
I5
I0
I0
tp107
a(I1
I0
F46.666666666666664
F0.33333333333333331
I72
I27
I64
I0
I0
tp108
a(I1
I0
F47.0
F1.0
I72
I33
I32
I0
I0
tp109
a(I2
I0
F47.0
F1.0
I72
I39
I16
I0
I0
tp110
a(I2
I0
F47.0
F1.0
I72
I33
I16
I0
I0
tp111
a(I3
I0
F48.0
F0.66666666666666663
I72
I21
I16
I0
I0
tp112
a(I3
I0
F48.0
F0.66666666666666663
I72
I7
I4
I0
I0
tp113
a(I1
I0
F48.0
F1.0
I72
I9
I16
I0
I0
tp114
a(I1
I0
F48.0
F0.96666666666666667
I72
I3
I8
I0
I0
tp115
a(I2
I0
F48.0
F2.0
I72
I5
I2
I0
I0
tp116
a(I2
I0
F48.0
F2.0
I72
I21
I10
I0
I0
tp117
a(I3
I0
F48.666666666666664
F0.33333333333333331
I72
I7
I4
I0
I0
tp118
a(I3
I0
F48.666666666666664
F0.33333333333333331
I72
I21
I16
I0
I0
tp119
a(I3
I0
F49.0
F0.66666666666666663
I72
I21
I16
I0
I0
tp120
a(I3
I0
F49.0
F0.66666666666666663
I72
I7
I4
I0
I0
tp121
a(I3
I0
F49.666666666666664
F0.33333333333333331
I72
I21
I16
I0
I0
tp122
a(I3
I0
F49.666666666666664
F0.33333333333333331
I72
I7
I4
I0
I0
tp123
a(I1
I0
F49.666666666666664
F0.33333333333333331
I72
I3
I8
I0
I0
tp124
a(I3
I0
F50.0
F1.0
I72
I21
I16
I0
I0
tp125
a(I3
I0
F50.0
F1.0
I72
I7
I4
I0
I0
tp126
a(I1
I0
F50.0
F1.0
I72
I9
I16
I0
I0
tp127
a(I1
I0
F50.0
F1.0
I72
I3
I8
I0
I0
tp128
a(I2
I0
F51.0
F2.0
I72
I63
I16
I0
I0
tp129
a(I2
I0
F51.0
F1.9666666666666666
I72
I21
I8
I0
I0
tp130
a(I1
I0
F52.0
F0.69999999999999996
I72
I9
I16
I0
I0
tp131
a(I1
I0
F52.666666666666664
F0.33333333333333331
I72
I3
I8
I0
I0
tp132
a(I1
I0
F53.0
F1.0
I72
I9
I10
I0
I0
tp133
a(I2
I0
F53.0
F2.0
I72
I14
I5
I0
I0
tp134
a(I2
I0
F53.0
F1.9666666666666666
I72
I12
I5
I0
I0
tp135
a(I1
I0
F54.666666666666664
F0.33333333333333331
I72
I27
I64
I0
I0
tp136
a(I1
I0
F55.0
F1.0
I72
I33
I32
I0
I0
tp137
a(I2
I0
F55.0
F1.0
I72
I39
I16
I0
I0
tp138
a(I2
I0
F55.0
F1.0
I72
I33
I16
I0
I0
tp139
a(I1
I0
F56.0
F1.0
I72
I3
I8
I0
I0
tp140
a(I3
I0
F56.0
F0.66666666666666663
I72
I21
I16
I0
I0
tp141
a(I3
I0
F56.0
F0.66666666666666663
I72
I7
I4
I0
I0
tp142
a(I1
I0
F56.0
F1.0
I72
I9
I16
I0
I0
tp143
a(I2
I0
F56.0
F2.0
I72
I5
I2
I0
I0
tp144
a(I2
I0
F56.0
F2.0
I72
I21
I10
I0
I0
tp145
a(I3
I0
F56.666666666666664
F0.33333333333333331
I72
I7
I4
I0
I0
tp146
a(I3
I0
F56.666666666666664
F0.33333333333333331
I72
I21
I16
I0
I0
tp147
a(I3
I0
F57.0
F0.66666666666666663
I72
I21
I16
I0
I0
tp148
a(I3
I0
F57.0
F0.66666666666666663
I72
I7
I4
I0
I0
tp149
a(I1
I0
F57.666666666666664
F0.33333333333333331
I72
I3
I8
I0
I0
tp150
a(I3
I0
F57.666666666666664
F0.33333333333333331
I72
I21
I16
I0
I0
tp151
a(I3
I0
F57.666666666666664
F0.33333333333333331
I72
I7
I4
I0
I0
tp152
a(I1
I0
F58.0
F1.0
I72
I3
I8
I0
I0
tp153
a(I3
I0
F58.0
F1.0
I72
I21
I16
I0
I0
tp154
a(I3
I0
F58.0
F1.0
I72
I7
I4
I0
I0
tp155
a(I1
I0
F58.0
F1.0
I72
I9
I16
I0
I0
tp156
a(I2
I0
F58.666666666666664
F2.3333333333333335
I72
I63
I16
I0
I0
tp157
a(I2
I0
F59.0
F1.9666666666666666
I72
I21
I8
I0
I0
tp158
a(I1
I0
F60.0
F0.69999999999999996
I72
I9
I16
I0
I0
tp159
a(I1
I0
F60.666666666666664
F0.33333333333333331
I72
I3
I8
I0
I0
tp160
a(I1
I0
F61.0
F1.0
I72
I9
I10
I0
I0
tp161
a(I2
I0
F61.0
F2.0
I72
I14
I5
I0
I0
tp162
a(I2
I0
F61.0
F1.9666666666666666
I72
I12
I5
I0
I0
tp163
a(I1
I0
F62.666666666666664
F0.33333333333333331
I72
I27
I64
I0
I0
tp164
a(I2
I0
F63.0
F1.0
I72
I33
I16
I0
I0
tp165
a(I1
I0
F63.0
F1.0
I72
I33
I32
I0
I0
tp166
a(I2
I0
F63.0
F1.0
I72
I39
I16
I0
I0
tp167
a(I3
I0
F63.666666666666664
F0.5
I72
I21
I16
I0
I0
tp168
a(I1
I0
F64.0
F1.0
I72
I9
I16
I0
I0
tp169
a(I3
I0
F64.0
F0.66666666666666663
I72
I21
I16
I0
I0
tp170
a(I3
I0
F64.0
F0.66666666666666663
I72
I7
I4
I0
I0
tp171
a(I1
I0
F64.0
F0.96666666666666667
I72
I3
I8
I0
I0
tp172
a(I2
I0
F64.0
F2.0
I72
I5
I2
I0
I0
tp173
a(I2
I0
F64.0
F2.0
I72
I21
I10
I0
I0
tp174
a(I3
I0
F64.666666666666671
F0.33333333333333331
I72
I7
I4
I0
I0
tp175
a(I3
I0
F64.666666666666671
F0.33333333333333331
I72
I21
I16
I0
I0
tp176
a(I3
I0
F65.0
F0.66666666666666663
I72
I21
I16
I0
I0
tp177
a(I3
I0
F65.0
F0.66666666666666663
I72
I7
I4
I0
I0
tp178
a(I1
I0
F65.666666666666671
F0.33333333333333331
I72
I3
I8
I0
I0
tp179
a(I3
I0
F65.666666666666671
F0.33333333333333331
I72
I21
I16
I0
I0
tp180
a(I3
I0
F65.666666666666671
F0.33333333333333331
I72
I7
I4
I0
I0
tp181
a(I1
I0
F66.0
F1.0
I72
I3
I8
I0
I0
tp182
a(I1
I0
F66.0
F1.0
I72
I9
I16
I0
I0
tp183
a(I3
I0
F66.0
F1.0
I72
I21
I16
I0
I0
tp184
a(I3
I0
F66.0
F1.0
I72
I7
I4
I0
I0
tp185
a(I2
I0
F67.0
F2.0
I72
I63
I16
I0
I0
tp186
a(I2
I0
F67.0
F1.9666666666666666
I72
I21
I8
I0
I0
tp187
a(I1
I0
F68.0
F0.69999999999999996
I72
I9
I16
I0
I0
tp188
a(I1
I0
F68.666666666666671
F0.33333333333333331
I72
I3
I8
I0
I0
tp189
a(I1
I0
F69.0
F1.0
I72
I9
I10
I0
I0
tp190
a(I2
I0
F69.0
F2.0
I72
I14
I5
I0
I0
tp191
a(I2
I0
F69.0
F1.9666666666666666
I72
I12
I5
I0
I0
tp192
a(I1
I0
F70.666666666666671
F0.33333333333333331
I72
I27
I64
I0
I0
tp193
a(I1
I0
F71.0
F1.0
I72
I33
I32
I0
I0
tp194
a(I2
I0
F71.0
F1.0
I72
I39
I16
I0
I0
tp195
a(I2
I0
F71.0
F1.0
I72
I33
I16
I0
I0
tp196
a(I2
I0
F72.0
F2.0
I72
I5
I2
I0
I0
tp197
a(I2
I0
F72.0
F2.0
I72
I21
I10
I0
I0
tp198
a(I1
I0
F72.0
F1.0
I72
I9
I16
I0
I0
tp199
a(I3
I0
F72.0
F0.66666666666666663
I72
I21
I16
I0
I0
tp200
a(I3
I0
F72.0
F0.66666666666666663
I72
I7
I4
I0
I0
tp201
a(I1
I0
F72.0
F1.0
I72
I3
I8
I0
I0
tp202
a(I3
I0
F72.666666666666671
F0.33333333333333331
I72
I21
I16
I0
I0
tp203
a(I3
I0
F72.666666666666671
F0.33333333333333331
I72
I7
I4
I0
I0
tp204
a(I3
I0
F73.0
F0.66666666666666663
I72
I21
I16
I0
I0
tp205
a(I3
I0
F73.0
F0.66666666666666663
I72
I7
I4
I0
I0
tp206
a(I1
I0
F73.666666666666671
F0.33333333333333331
I72
I3
I8
I0
I0
tp207
a(I3
I0
F73.666666666666671
F0.33333333333333331
I72
I21
I16
I0
I0
tp208
a(I3
I0
F73.666666666666671
F0.33333333333333331
I72
I7
I4
I0
I0
tp209
a(I1
I0
F74.0
F1.0
I72
I3
I8
I0
I0
tp210
a(I1
I0
F74.0
F1.0
I72
I9
I16
I0
I0
tp211
a(I3
I0
F74.0
F1.0
I72
I21
I16
I0
I0
tp212
a(I3
I0
F74.0
F1.0
I72
I7
I4
I0
I0
tp213
a(I2
I0
F74.666666666666671
F2.3333333333333335
I72
I63
I16
I0
I0
tp214
a(I2
I0
F75.0
F1.9666666666666666
I72
I21
I8
I0
I0
tp215
a(I1
I0
F76.0
F0.69999999999999996
I72
I9
I16
I0
I0
tp216
a(I1
I0
F76.666666666666671
F0.33333333333333331
I72
I3
I8
I0
I0
tp217
a(I2
I0
F77.0
F1.9666666666666666
I72
I12
I5
I0
I0
tp218
a(I1
I0
F77.0
F1.0
I72
I9
I10
I0
I0
tp219
a(I2
I0
F77.0
F2.0
I72
I14
I5
I0
I0
tp220
a(I1
I0
F78.666666666666671
F0.33333333333333331
I72
I27
I64
I0
I0
tp221
a(I1
I0
F79.0
F1.0
I72
I33
I32
I0
I0
tp222
a(I2
I0
F79.0
F1.0
I72
I39
I16
I0
I0
tp223
a(I2
I0
F79.0
F1.0
I72
I33
I16
I0
I0
tp224
a(I3
I0
F79.666666666666671
F0.5
I72
I21
I16
I0
I0
tp225
a(I1
I0
F80.0
F0.96666666666666667
I72
I3
I8
I0
I0
tp226
a(I2
I0
F80.0
F2.0
I72
I5
I2
I0
I0
tp227
a(I2
I0
F80.0
F2.0
I72
I21
I10
I0
I0
tp228
a(I3
I0
F80.0
F0.66666666666666663
I72
I21
I16
I0
I0
tp229
a(I3
I0
F80.0
F0.66666666666666663
I72
I7
I4
I0
I0
tp230
a(I1
I0
F80.0
F1.0
I72
I9
I16
I0
I0
tp231
a(I3
I0
F80.666666666666671
F0.33333333333333331
I72
I21
I16
I0
I0
tp232
a(I3
I0
F80.666666666666671
F0.33333333333333331
I72
I7
I4
I0
I0
tp233
a(I3
I0
F81.0
F0.66666666666666663
I72
I21
I16
I0
I0
tp234
a(I3
I0
F81.0
F0.66666666666666663
I72
I7
I4
I0
I0
tp235
a(I3
I0
F81.666666666666671
F0.33333333333333331
I72
I21
I16
I0
I0
tp236
a(I3
I0
F81.666666666666671
F0.33333333333333331
I72
I7
I4
I0
I0
tp237
a(I1
I0
F81.666666666666671
F0.33333333333333331
I72
I3
I8
I0
I0
tp238
a(I3
I0
F82.0
F1.0
I72
I7
I4
I0
I0
tp239
a(I1
I0
F82.0
F1.0
I72
I9
I16
I0
I0
tp240
a(I1
I0
F82.0
F1.0
I72
I3
I8
I0
I0
tp241
a(I3
I0
F82.0
F1.0
I72
I21
I16
I0
I0
tp242
a(I2
I0
F83.0
F2.0
I72
I63
I16
I0
I0
tp243
a(I2
I0
F83.0
F1.9666666666666666
I72
I21
I8
I0
I0
tp244
a(I1
I0
F84.0
F0.69999999999999996
I72
I9
I16
I0
I0
tp245
a(I1
I0
F84.666666666666671
F0.33333333333333331
I72
I3
I8
I0
I0
tp246
a(I1
I0
F85.0
F1.0
I72
I9
I10
I0
I0
tp247
a(I2
I0
F85.0
F2.0
I72
I14
I5
I0
I0
tp248
a(I2
I0
F85.0
F1.9666666666666666
I72
I12
I5
I0
I0
tp249
a(I1
I0
F86.666666666666671
F0.33333333333333331
I72
I27
I64
I0
I0
tp250
a(I1
I0
F87.0
F1.0
I72
I33
I32
I0
I0
tp251
a(I2
I0
F87.0
F1.0
I72
I39
I16
I0
I0
tp252
a(I2
I0
F87.0
F1.0
I72
I33
I16
I0
I0
tp253
a(I2
I0
F88.0
F2.0
I72
I5
I2
I0
I0
tp254
a(I2
I0
F88.0
F2.0
I72
I21
I10
I0
I0
tp255
a(I1
I0
F88.0
F1.0
I72
I9
I16
I0
I0
tp256
a(I3
I0
F88.0
F0.66666666666666663
I72
I21
I16
I0
I0
tp257
a(I3
I0
F88.0
F0.66666666666666663
I72
I7
I4
I0
I0
tp258
a(I1
I0
F88.0
F1.0
I72
I3
I8
I0
I0
tp259
a(I3
I0
F88.666666666666671
F0.33333333333333331
I72
I21
I16
I0
I0
tp260
a(I3
I0
F88.666666666666671
F0.33333333333333331
I72
I7
I4
I0
I0
tp261
a(I3
I0
F89.0
F0.66666666666666663
I72
I21
I16
I0
I0
tp262
a(I3
I0
F89.0
F0.66666666666666663
I72
I7
I4
I0
I0
tp263
a(I1
I0
F89.666666666666671
F0.33333333333333331
I72
I3
I8
I0
I0
tp264
a(I3
I0
F89.666666666666671
F0.33333333333333331
I72
I21
I16
I0
I0
tp265
a(I3
I0
F89.666666666666671
F0.33333333333333331
I72
I7
I4
I0
I0
tp266
a(I1
I0
F90.0
F1.0
I72
I3
I8
I0
I0
tp267
a(I1
I0
F90.0
F1.0
I72
I9
I16
I0
I0
tp268
a(I3
I0
F90.0
F1.0
I72
I21
I16
I0
I0
tp269
a(I3
I0
F90.0
F1.0
I72
I7
I4
I0
I0
tp270
a(I2
I0
F90.666666666666671
F2.3333333333333335
I72
I63
I16
I0
I0
tp271
a(I2
I0
F91.0
F1.9666666666666666
I72
I21
I8
I0
I0
tp272
a(I1
I0
F92.0
F0.69999999999999996
I72
I9
I16
I0
I0
tp273
a(I1
I0
F92.666666666666671
F0.33333333333333331
I72
I3
I8
I0
I0
tp274
a(I2
I0
F93.0
F1.9666666666666666
I72
I12
I5
I0
I0
tp275
a(I1
I0
F93.0
F1.0
I72
I9
I10
I0
I0
tp276
a(I2
I0
F93.0
F2.0
I72
I14
I5
I0
I0
tp277
a(I1
I0
F94.666666666666671
F0.33333333333333331
I72
I27
I64
I0
I0
tp278
a(I1
I0
F95.0
F1.0
I72
I33
I32
I0
I0
tp279
a(I2
I0
F95.0
F1.0
I72
I39
I16
I0
I0
tp280
a(I2
I0
F95.0
F1.0
I72
I33
I16
I0
I0
tp281
a(I3
I0
F95.666666666666671
F0.5
I72
I21
I16
I0
I0
tp282
a(I3
I0
F96.0
F0.66666666666666663
I72
I21
I16
I0
I0
tp283
a(I3
I0
F96.0
F0.66666666666666663
I72
I7
I4
I0
I0
tp284
a(I1
I0
F96.0
F0.96666666666666667
I72
I3
I8
I0
I0
tp285
a(I3
I0
F96.666666666666671
F0.33333333333333331
I72
I7
I4
I0
I0
tp286
a(I3
I0
F96.666666666666671
F0.33333333333333331
I72
I21
I16
I0
I0
tp287
a(I3
I0
F97.0
F0.66666666666666663
I72
I21
I16
I0
I0
tp288
a(I3
I0
F97.0
F0.66666666666666663
I72
I7
I4
I0
I0
tp289
a(I3
I0
F97.666666666666671
F0.33333333333333331
I72
I21
I16
I0
I0
tp290
a(I3
I0
F97.666666666666671
F0.33333333333333331
I72
I7
I4
I0
I0
tp291
a(I3
I0
F98.0
F1.0
I72
I7
I4
I0
I0
tp292
a(I3
I0
F98.0
F1.0
I72
I21
I16
I0
I0
tp293
a(I1
I1
F98.0
I2
I72
I7
I16
I0
I0
tp294
a(I1
I0
F100.0
F0.69999999999999996
I72
I9
I16
I0
I0
tp295
a(I1
I0
F100.66666666666667
F0.33333333333333331
I72
I3
I8
I0
I0
tp296
a(I1
I1
F102.0
I2
I72
I39
I64
I0
I0
tp297
a(I2
I0
F103.0
F1.0
I72
I39
I16
I0
I0
tp298
a(I2
I0
F103.0
F1.0
I72
I33
I16
I0
I0
tp299
a(I2
I0
F104.0
F2.0
I72
I5
I2
I0
I0
tp300
a(I2
I0
F104.0
F2.0
I72
I21
I10
I0
I0
tp301
a(I3
I0
F104.0
F0.66666666666666663
I72
I21
I16
I0
I0
tp302
a(I3
I0
F104.0
F0.66666666666666663
I72
I7
I4
I0
I0
tp303
a(I1
I0
F104.0
F1.0
I72
I3
I8
I0
I0
tp304
a(I3
I0
F104.66666666666667
F0.33333333333333331
I72
I21
I16
I0
I0
tp305
a(I3
I0
F104.66666666666667
F0.33333333333333331
I72
I7
I4
I0
I0
tp306
a(I3
I0
F105.0
F0.66666666666666663
I72
I21
I16
I0
I0
tp307
a(I3
I0
F105.0
F0.66666666666666663
I72
I7
I4
I0
I0
tp308
a(I3
I0
F105.66666666666667
F0.33333333333333331
I72
I21
I16
I0
I0
tp309
a(I3
I0
F105.66666666666667
F0.33333333333333331
I72
I7
I4
I0
I0
tp310
a(I3
I0
F106.0
F1.0
I72
I21
I16
I0
I0
tp311
a(I3
I0
F106.0
F1.0
I72
I7
I4
I0
I0
tp312
a(I1
I1
F106.0
I2
I72
I7
I16
I0
I0
tp313
a(I1
I0
F108.0
F0.69999999999999996
I72
I9
I16
I0
I0
tp314
a(I1
I0
F108.66666666666667
F0.33333333333333331
I72
I3
I8
I0
I0
tp315
a(I1
I1
F111.0
I1
I72
I45
I128
I0
I0
tp316
a(I2
I0
F111.0
F1.0
I72
I39
I16
I0
I0
tp317
a(I2
I0
F111.0
F1.0
I72
I33
I16
I0
I0
tp318
a(I3
I0
F112.0
F0.66666666666666663
I72
I7
I4
I0
I0
tp319
a(I1
I0
F112.0
F0.96666666666666667
I72
I3
I8
I0
I0
tp320
a(I2
I0
F112.0
F2.0
I72
I5
I2
I0
I0
tp321
a(I2
I0
F112.0
F2.0
I72
I21
I10
I0
I0
tp322
a(I3
I0
F112.0
F0.66666666666666663
I72
I21
I16
I0
I0
tp323
a(I3
I0
F112.66666666666667
F0.33333333333333331
I72
I21
I16
I0
I0
tp324
a(I3
I0
F112.66666666666667
F0.33333333333333331
I72
I7
I4
I0
I0
tp325
a(I3
I0
F113.0
F0.66666666666666663
I72
I21
I16
I0
I0
tp326
a(I3
I0
F113.0
F0.66666666666666663
I72
I7
I4
I0
I0
tp327
a(I3
I0
F113.66666666666667
F0.33333333333333331
I72
I21
I16
I0
I0
tp328
a(I3
I0
F113.66666666666667
F0.33333333333333331
I72
I7
I4
I0
I0
tp329
a(I3
I0
F114.0
F1.0
I72
I21
I16
I0
I0
tp330
a(I3
I0
F114.0
F1.0
I72
I7
I4
I0
I0
tp331
a(I1
I1
F114.0
I2
I72
I7
I16
I0
I0
tp332
a(I1
I0
F116.0
F0.69999999999999996
I72
I9
I16
I0
I0
tp333
a(I1
I0
F116.66666666666667
F0.33333333333333331
I72
I3
I8
I0
I0
tp334
a(I1
I1
F118.0
I2
I72
I39
I64
I0
I0
tp335
a(I2
I0
F119.0
F1.0
I72
I39
I16
I0
I0
tp336
a(I2
I0
F119.0
F1.0
I72
I33
I16
I0
I0
tp337
a(I2
I0
F120.0
F2.0
I72
I5
I2
I0
I0
tp338
a(I2
I0
F120.0
F2.0
I72
I21
I10
I0
I0
tp339
a(I3
I0
F120.0
F0.66666666666666663
I72
I21
I16
I0
I0
tp340
a(I3
I0
F120.0
F0.66666666666666663
I72
I7
I4
I0
I0
tp341
a(I1
I0
F120.0
F1.0
I72
I3
I8
I0
I0
tp342
a(I3
I0
F120.66666666666667
F0.33333333333333331
I72
I21
I16
I0
I0
tp343
a(I3
I0
F120.66666666666667
F0.33333333333333331
I72
I7
I4
I0
I0
tp344
a(I3
I0
F121.0
F0.66666666666666663
I72
I21
I16
I0
I0
tp345
a(I3
I0
F121.0
F0.66666666666666663
I72
I7
I4
I0
I0
tp346
a(I3
I0
F121.66666666666667
F0.33333333333333331
I72
I21
I16
I0
I0
tp347
a(I3
I0
F121.66666666666667
F0.33333333333333331
I72
I7
I4
I0
I0
tp348
a(I3
I0
F122.0
F1.0
I72
I21
I16
I0
I0
tp349
a(I3
I0
F122.0
F1.0
I72
I7
I4
I0
I0
tp350
a(I1
I1
F122.0
I2
I72
I7
I16
I0
I0
tp351
a(I1
I0
F124.0
F0.69999999999999996
I72
I9
I16
I0
I0
tp352
a(I1
I0
F124.66666666666667
F0.33333333333333331
I72
I3
I8
I0
I0
tp353
a(I2
I0
F127.0
F1.0
I72
I39
I16
I0
I0
tp354
a(I2
I0
F127.0
F1.0
I72
I33
I16
I0
I0
tp355
a(I1
I1
F127.0
I1
I72
I45
I128
I0
I0
tp356
a(I1
I0
F128.0
F0.96666666666666667
I72
I3
I8
I0
I0
tp357
a(I2
I0
F128.0
F2.0
I72
I5
I2
I0
I0
tp358
a(I3
I0
F128.0
F0.66666666666666663
I72
I21
I16
I0
I0
tp359
a(I3
I0
F128.0
F0.66666666666666663
I72
I7
I4
I0
I0
tp360
a(I1
I0
F128.0
F1.0
I72
I9
I16
I0
I0
tp361
a(I2
I0
F128.0
F2.0
I72
I21
I10
I0
I0
tp362
a(I3
I0
F128.66666666666669
F0.33333333333333331
I72
I21
I16
I0
I0
tp363
a(I3
I0
F128.66666666666669
F0.33333333333333331
I72
I7
I4
I0
I0
tp364
a(I3
I0
F129.0
F0.66666666666666663
I72
I21
I16
I0
I0
tp365
a(I3
I0
F129.0
F0.66666666666666663
I72
I7
I4
I0
I0
tp366
a(I3
I0
F129.66666666666669
F0.33333333333333331
I72
I21
I16
I0
I0
tp367
a(I3
I0
F129.66666666666669
F0.33333333333333331
I72
I7
I4
I0
I0
tp368
a(I1
I0
F129.66666666666669
F0.33333333333333331
I72
I3
I8
I0
I0
tp369
a(I1
I0
F130.0
F1.0
I72
I9
I16
I0
I0
tp370
a(I1
I0
F130.0
F1.0
I72
I3
I8
I0
I0
tp371
a(I3
I0
F130.0
F1.0
I72
I21
I16
I0
I0
tp372
a(I3
I0
F130.0
F1.0
I72
I7
I4
I0
I0
tp373
a(I2
I0
F131.0
F2.0
I72
I63
I16
I0
I0
tp374
a(I2
I0
F131.0
F1.9666666666666666
I72
I21
I8
I0
I0
tp375
a(I1
I0
F132.0
F0.69999999999999996
I72
I9
I16
I0
I0
tp376
a(I1
I0
F132.66666666666669
F0.33333333333333331
I72
I3
I8
I0
I0
tp377
a(I1
I0
F133.0
F1.0
I72
I9
I10
I0
I0
tp378
a(I2
I0
F133.0
F2.0
I72
I14
I5
I0
I0
tp379
a(I2
I0
F133.0
F1.9666666666666666
I72
I12
I5
I0
I0
tp380
a(I1
I0
F134.66666666666669
F0.33333333333333331
I72
I27
I64
I0
I0
tp381
a(I1
I0
F135.0
F1.0
I72
I33
I32
I0
I0
tp382
a(I2
I0
F135.0
F1.0
I72
I39
I16
I0
I0
tp383
a(I2
I0
F135.0
F1.0
I72
I33
I16
I0
I0
tp384
a(I2
I0
F136.0
F2.0
I72
I5
I2
I0
I0
tp385
a(I2
I0
F136.0
F2.0
I72
I21
I10
I0
I0
tp386
a(I1
I0
F136.0
F1.0
I72
I9
I16
I0
I0
tp387
a(I3
I0
F136.0
F0.66666666666666663
I72
I21
I16
I0
I0
tp388
a(I3
I0
F136.0
F0.66666666666666663
I72
I7
I4
I0
I0
tp389
a(I1
I0
F136.0
F1.0
I72
I3
I8
I0
I0
tp390
a(I3
I0
F136.66666666666669
F0.33333333333333331
I72
I21
I16
I0
I0
tp391
a(I3
I0
F136.66666666666669
F0.33333333333333331
I72
I7
I4
I0
I0
tp392
a(I3
I0
F137.0
F0.66666666666666663
I72
I21
I16
I0
I0
tp393
a(I3
I0
F137.0
F0.66666666666666663
I72
I7
I4
I0
I0
tp394
a(I1
I0
F137.66666666666669
F0.33333333333333331
I72
I3
I8
I0
I0
tp395
a(I3
I0
F137.66666666666669
F0.33333333333333331
I72
I21
I16
I0
I0
tp396
a(I3
I0
F137.66666666666669
F0.33333333333333331
I72
I7
I4
I0
I0
tp397
a(I1
I0
F138.0
F1.0
I72
I3
I8
I0
I0
tp398
a(I1
I0
F138.0
F1.0
I72
I9
I16
I0
I0
tp399
a(I3
I0
F138.0
F1.0
I72
I21
I16
I0
I0
tp400
a(I3
I0
F138.0
F1.0
I72
I7
I4
I0
I0
tp401
a(I2
I0
F138.66666666666669
F2.3333333333333335
I72
I63
I16
I0
I0
tp402
a(I2
I0
F139.0
F1.9666666666666666
I72
I21
I8
I0
I0
tp403
a(I1
I0
F140.0
F0.69999999999999996
I72
I9
I16
I0
I0
tp404
a(I1
I0
F140.66666666666669
F0.33333333333333331
I72
I3
I8
I0
I0
tp405
a(I2
I0
F141.0
F1.9666666666666666
I72
I12
I5
I0
I0
tp406
a(I1
I0
F141.0
F1.0
I72
I9
I10
I0
I0
tp407
a(I2
I0
F141.0
F2.0
I72
I14
I5
I0
I0
tp408
a(I1
I0
F142.66666666666669
F0.33333333333333331
I72
I27
I64
I0
I0
tp409
a(I1
I0
F143.0
F1.0
I72
I33
I32
I0
I0
tp410
a(I2
I0
F143.0
F1.0
I72
I39
I16
I0
I0
tp411
a(I2
I0
F143.0
F1.0
I72
I33
I16
I0
I0
tp412
a(I3
I0
F143.66666666666669
F0.5
I72
I21
I16
I0
I0
tp413
a(I3
I0
F144.0
F0.66666666666666663
I72
I7
I4
I0
I0
tp414
a(I2
I0
F144.0
F2.0
I72
I21
I10
I0
I0
tp415
a(I1
I0
F144.0
F1.0
I72
I9
I16
I0
I0
tp416
a(I1
I0
F144.0
F0.96666666666666667
I72
I3
I8
I0
I0
tp417
a(I2
I0
F144.0
F2.0
I72
I5
I2
I0
I0
tp418
a(I3
I0
F144.0
F0.66666666666666663
I72
I21
I16
I0
I0
tp419
a(I3
I0
F144.66666666666669
F0.33333333333333331
I72
I21
I16
I0
I0
tp420
a(I3
I0
F144.66666666666669
F0.33333333333333331
I72
I7
I4
I0
I0
tp421
a(I3
I0
F145.0
F0.66666666666666663
I72
I21
I16
I0
I0
tp422
a(I3
I0
F145.0
F0.66666666666666663
I72
I7
I4
I0
I0
tp423
a(I3
I0
F145.66666666666669
F0.33333333333333331
I72
I21
I16
I0
I0
tp424
a(I3
I0
F145.66666666666669
F0.33333333333333331
I72
I7
I4
I0
I0
tp425
a(I1
I0
F145.66666666666669
F0.33333333333333331
I72
I3
I8
I0
I0
tp426
a(I3
I0
F146.0
F1.0
I72
I7
I4
I0
I0
tp427
a(I1
I0
F146.0
F1.0
I72
I9
I16
I0
I0
tp428
a(I1
I0
F146.0
F1.0
I72
I3
I8
I0
I0
tp429
a(I3
I0
F146.0
F1.0
I72
I21
I16
I0
I0
tp430
a(I2
I0
F147.0
F2.0
I72
I63
I16
I0
I0
tp431
a(I2
I0
F147.0
F1.9666666666666666
I72
I21
I8
I0
I0
tp432
a(I1
I0
F148.0
F0.69999999999999996
I72
I9
I16
I0
I0
tp433
a(I1
I0
F148.66666666666669
F0.33333333333333331
I72
I3
I8
I0
I0
tp434
a(I1
I0
F149.0
F1.0
I72
I9
I10
I0
I0
tp435
a(I2
I0
F149.0
F2.0
I72
I14
I5
I0
I0
tp436
a(I2
I0
F149.0
F1.9666666666666666
I72
I12
I5
I0
I0
tp437
a(I1
I0
F150.66666666666669
F0.33333333333333331
I72
I27
I64
I0
I0
tp438
a(I1
I0
F151.0
F1.0
I72
I33
I32
I0
I0
tp439
a(I2
I0
F151.0
F1.0
I72
I39
I16
I0
I0
tp440
a(I2
I0
F151.0
F1.0
I72
I33
I16
I0
I0
tp441
a(I2
I0
F152.0
F2.0
I72
I5
I2
I0
I0
tp442
a(I2
I0
F152.0
F2.0
I72
I21
I10
I0
I0
tp443
a(I1
I0
F152.0
F1.0
I72
I9
I16
I0
I0
tp444
a(I3
I0
F152.0
F0.66666666666666663
I72
I21
I16
I0
I0
tp445
a(I3
I0
F152.0
F0.66666666666666663
I72
I7
I4
I0
I0
tp446
a(I1
I0
F152.0
F1.0
I72
I3
I8
I0
I0
tp447
a(I3
I0
F152.66666666666669
F0.33333333333333331
I72
I21
I16
I0
I0
tp448
a(I3
I0
F152.66666666666669
F0.33333333333333331
I72
I7
I4
I0
I0
tp449
a(I3
I0
F153.0
F0.66666666666666663
I72
I21
I16
I0
I0
tp450
a(I3
I0
F153.0
F0.66666666666666663
I72
I7
I4
I0
I0
tp451
a(I1
I0
F153.66666666666669
F0.33333333333333331
I72
I3
I8
I0
I0
tp452
a(I3
I0
F153.66666666666669
F0.33333333333333331
I72
I21
I16
I0
I0
tp453
a(I3
I0
F153.66666666666669
F0.33333333333333331
I72
I7
I4
I0
I0
tp454
a(I1
I0
F154.0
F1.0
I72
I9
I16
I0
I0
tp455
a(I3
I0
F154.0
F1.0
I72
I21
I16
I0
I0
tp456
a(I3
I0
F154.0
F1.0
I72
I7
I4
I0
I0
tp457
a(I1
I0
F154.0
F1.0
I72
I3
I8
I0
I0
tp458
a(I2
I0
F154.66666666666669
F2.3333333333333335
I72
I63
I16
I0
I0
tp459
a(I2
I0
F155.0
F1.9666666666666666
I72
I21
I8
I0
I0
tp460
a(I1
I0
F156.0
F0.69999999999999996
I72
I9
I16
I0
I0
tp461
a(I1
I0
F156.66666666666669
F0.33333333333333331
I72
I3
I8
I0
I0
tp462
a(I2
I0
F157.0
F1.9666666666666666
I72
I12
I5
I0
I0
tp463
a(I1
I0
F157.0
F1.0
I72
I9
I10
I0
I0
tp464
a(I2
I0
F157.0
F2.0
I72
I14
I5
I0
I0
tp465
a(I1
I0
F158.66666666666669
F0.33333333333333331
I72
I27
I64
I0
I0
tp466
a(I1
I0
F159.0
F1.0
I72
I33
I32
I0
I0
tp467
a(I2
I0
F159.0
F1.0
I72
I39
I16
I0
I0
tp468
a(I2
I0
F159.0
F1.0
I72
I33
I16
I0
I0
tp469
a(I3
I0
F159.66666666666669
F0.5
I72
I21
I16
I0
I0
tp470
a(I1
I0
F160.0
F1.0
I72
I9
I16
I0
I0
tp471
a(I1
I0
F160.0
F0.96666666666666667
I72
I3
I8
I0
I0
tp472
a(I2
I0
F160.0
F2.0
I72
I5
I2
I0
I0
tp473
a(I3
I0
F160.0
F0.66666666666666663
I72
I21
I16
I0
I0
tp474
a(I3
I0
F160.0
F0.66666666666666663
I72
I7
I4
I0
I0
tp475
a(I2
I0
F160.0
F2.0
I72
I21
I10
I0
I0
tp476
a(I3
I0
F160.66666666666669
F0.33333333333333331
I72
I21
I16
I0
I0
tp477
a(I3
I0
F160.66666666666669
F0.33333333333333331
I72
I7
I4
I0
I0
tp478
a(I3
I0
F161.0
F0.66666666666666663
I72
I21
I16
I0
I0
tp479
a(I3
I0
F161.0
F0.66666666666666663
I72
I7
I4
I0
I0
tp480
a(I1
I0
F161.66666666666669
F0.33333333333333331
I72
I3
I8
I0
I0
tp481
a(I3
I0
F161.66666666666669
F0.33333333333333331
I72
I21
I16
I0
I0
tp482
a(I3
I0
F161.66666666666669
F0.33333333333333331
I72
I7
I4
I0
I0
tp483
a(I3
I0
F162.0
F1.0
I72
I7
I4
I0
I0
tp484
a(I1
I0
F162.0
F1.0
I72
I9
I16
I0
I0
tp485
a(I1
I0
F162.0
F1.0
I72
I3
I8
I0
I0
tp486
a(I3
I0
F162.0
F1.0
I72
I21
I16
I0
I0
tp487
a(I2
I0
F163.0
F2.0
I72
I63
I16
I0
I0
tp488
a(I2
I0
F163.0
F1.9666666666666666
I72
I21
I8
I0
I0
tp489
a(I1
I0
F164.0
F0.69999999999999996
I72
I9
I16
I0
I0
tp490
a(I1
I0
F164.66666666666669
F0.33333333333333331
I72
I3
I8
I0
I0
tp491
a(I1
I0
F165.0
F1.0
I72
I9
I10
I0
I0
tp492
a(I2
I0
F165.0
F2.0
I72
I14
I5
I0
I0
tp493
a(I2
I0
F165.0
F1.9666666666666666
I72
I12
I5
I0
I0
tp494
a(I1
I0
F166.66666666666669
F0.33333333333333331
I72
I27
I64
I0
I0
tp495
a(I1
I0
F167.0
F1.0
I72
I33
I32
I0
I0
tp496
a(I2
I0
F167.0
F1.0
I72
I39
I16
I0
I0
tp497
a(I2
I0
F167.0
F1.0
I72
I33
I16
I0
I0
tp498
a(I2
I0
F168.0
F2.0
I72
I5
I2
I0
I0
tp499
a(I2
I0
F168.0
F2.0
I72
I21
I10
I0
I0
tp500
a(I1
I0
F168.0
F1.0
I72
I9
I16
I0
I0
tp501
a(I3
I0
F168.0
F0.66666666666666663
I72
I21
I16
I0
I0
tp502
a(I3
I0
F168.0
F0.66666666666666663
I72
I7
I4
I0
I0
tp503
a(I1
I0
F168.0
F1.0
I72
I3
I8
I0
I0
tp504
a(I3
I0
F168.66666666666669
F0.33333333333333331
I72
I21
I16
I0
I0
tp505
a(I3
I0
F168.66666666666669
F0.33333333333333331
I72
I7
I4
I0
I0
tp506
a(I3
I0
F169.0
F0.66666666666666663
I72
I21
I16
I0
I0
tp507
a(I3
I0
F169.0
F0.66666666666666663
I72
I7
I4
I0
I0
tp508
a(I1
I0
F169.66666666666669
F0.33333333333333331
I72
I3
I8
I0
I0
tp509
a(I3
I0
F169.66666666666669
F0.33333333333333331
I72
I21
I16
I0
I0
tp510
a(I3
I0
F169.66666666666669
F0.33333333333333331
I72
I7
I4
I0
I0
tp511
a(I1
I0
F170.0
F1.0
I72
I3
I8
I0
I0
tp512
a(I1
I0
F170.0
F1.0
I72
I9
I16
I0
I0
tp513
a(I3
I0
F170.0
F1.0
I72
I21
I16
I0
I0
tp514
a(I3
I0
F170.0
F1.0
I72
I7
I4
I0
I0
tp515
a(I2
I0
F170.66666666666669
F2.3333333333333335
I72
I63
I16
I0
I0
tp516
a(I2
I0
F171.0
F1.9666666666666666
I72
I21
I8
I0
I0
tp517
a(I1
I0
F172.0
F0.69999999999999996
I72
I9
I16
I0
I0
tp518
a(I1
I0
F172.66666666666669
F0.33333333333333331
I72
I3
I8
I0
I0
tp519
a(I2
I0
F173.0
F1.9666666666666666
I72
I12
I5
I0
I0
tp520
a(I1
I0
F173.0
F1.0
I72
I9
I10
I0
I0
tp521
a(I2
I0
F173.0
F2.0
I72
I14
I5
I0
I0
tp522
a(I1
I0
F174.66666666666669
F0.33333333333333331
I72
I27
I64
I0
I0
tp523
a(I1
I0
F175.0
F1.0
I72
I33
I32
I0
I0
tp524
a(I2
I0
F175.0
F1.0
I72
I39
I16
I0
I0
tp525
a(I2
I0
F175.0
F1.0
I72
I33
I16
I0
I0
tp526
a(I3
I0
F175.66666666666669
F0.5
I72
I21
I16
I0
I0
tp527
a(I1
I0
F176.0
F1.0
I72
I9
I16
I0
I0
tp528
a(I1
I0
F176.0
F0.96666666666666667
I72
I3
I8
I0
I0
tp529
a(I2
I0
F176.0
F2.0
I72
I5
I2
I0
I0
tp530
a(I3
I0
F176.0
F0.66666666666666663
I72
I21
I16
I0
I0
tp531
a(I3
I0
F176.0
F0.66666666666666663
I72
I7
I4
I0
I0
tp532
a(I2
I0
F176.0
F2.0
I72
I21
I10
I0
I0
tp533
a(I3
I0
F176.66666666666669
F0.33333333333333331
I72
I21
I16
I0
I0
tp534
a(I3
I0
F176.66666666666669
F0.33333333333333331
I72
I7
I4
I0
I0
tp535
a(I3
I0
F177.0
F0.66666666666666663
I72
I21
I16
I0
I0
tp536
a(I3
I0
F177.0
F0.66666666666666663
I72
I7
I4
I0
I0
tp537
a(I1
I0
F177.66666666666669
F0.33333333333333331
I72
I3
I8
I0
I0
tp538
a(I3
I0
F177.66666666666669
F0.33333333333333331
I72
I21
I16
I0
I0
tp539
a(I3
I0
F177.66666666666669
F0.33333333333333331
I72
I7
I4
I0
I0
tp540
a(I3
I0
F178.0
F1.0
I72
I7
I4
I0
I0
tp541
a(I1
I0
F178.0
F1.0
I72
I9
I16
I0
I0
tp542
a(I1
I0
F178.0
F1.0
I72
I3
I8
I0
I0
tp543
a(I3
I0
F178.0
F1.0
I72
I21
I16
I0
I0
tp544
a(I2
I0
F179.0
F2.0
I72
I63
I16
I0
I0
tp545
a(I2
I0
F179.0
F1.9666666666666666
I72
I21
I8
I0
I0
tp546
a(I1
I0
F180.0
F0.69999999999999996
I72
I9
I16
I0
I0
tp547
a(I1
I0
F180.66666666666669
F0.33333333333333331
I72
I3
I8
I0
I0
tp548
a(I1
I0
F181.0
F1.0
I72
I9
I10
I0
I0
tp549
a(I2
I0
F181.0
F2.0
I72
I14
I5
I0
I0
tp550
a(I2
I0
F181.0
F1.9666666666666666
I72
I12
I5
I0
I0
tp551
a(I1
I0
F182.66666666666669
F0.33333333333333331
I72
I27
I64
I0
I0
tp552
a(I1
I0
F183.0
F1.0
I72
I33
I32
I0
I0
tp553
a(I2
I0
F183.0
F1.0
I72
I39
I16
I0
I0
tp554
a(I2
I0
F183.0
F1.0
I72
I33
I16
I0
I0
tp555
a(I3
I0
F184.0
F0.66666666666666663
I72
I7
I4
I0
I0
tp556
a(I1
I0
F184.0
F1.0
I72
I3
I8
I0
I0
tp557
a(I2
I0
F184.0
F2.0
I72
I5
I2
I0
I0
tp558
a(I2
I0
F184.0
F2.0
I72
I21
I10
I0
I0
tp559
a(I1
I0
F184.0
F1.0
I72
I9
I16
I0
I0
tp560
a(I3
I0
F184.0
F0.66666666666666663
I72
I21
I16
I0
I0
tp561
a(I3
I0
F184.66666666666669
F0.33333333333333331
I72
I21
I16
I0
I0
tp562
a(I3
I0
F184.66666666666669
F0.33333333333333331
I72
I7
I4
I0
I0
tp563
a(I3
I0
F185.0
F0.66666666666666663
I72
I21
I16
I0
I0
tp564
a(I3
I0
F185.0
F0.66666666666666663
I72
I7
I4
I0
I0
tp565
a(I1
I0
F185.66666666666669
F0.33333333333333331
I72
I3
I8
I0
I0
tp566
a(I3
I0
F185.66666666666669
F0.33333333333333331
I72
I21
I16
I0
I0
tp567
a(I3
I0
F185.66666666666669
F0.33333333333333331
I72
I7
I4
I0
I0
tp568
a(I1
I0
F186.0
F1.0
I72
I3
I8
I0
I0
tp569
a(I1
I0
F186.0
F1.0
I72
I9
I16
I0
I0
tp570
a(I3
I0
F186.0
F1.0
I72
I21
I16
I0
I0
tp571
a(I3
I0
F186.0
F1.0
I72
I7
I4
I0
I0
tp572
a(I2
I0
F186.66666666666669
F2.3333333333333335
I72
I63
I16
I0
I0
tp573
a(I2
I0
F187.0
F1.9666666666666666
I72
I21
I8
I0
I0
tp574
a(I1
I0
F188.0
F0.69999999999999996
I72
I9
I16
I0
I0
tp575
a(I1
I0
F188.66666666666669
F0.33333333333333331
I72
I3
I8
I0
I0
tp576
a(I2
I0
F189.0
F2.0
I72
I14
I5
I0
I0
tp577
a(I2
I0
F189.0
F1.9666666666666666
I72
I12
I5
I0
I0
tp578
a(I1
I0
F189.0
F1.0
I72
I9
I10
I0
I0
tp579
a(I1
I0
F190.66666666666669
F0.33333333333333331
I72
I27
I64
I0
I0
tp580
a(I1
I0
F191.0
F1.0
I72
I33
I32
I0
I0
tp581
a(I2
I0
F191.0
F1.0
I72
I39
I16
I0
I0
tp582
a(I2
I0
F191.0
F1.0
I72
I33
I16
I0
I0
tp583
a(I3
I0
F191.66666666666669
F0.5
I72
I21
I16
I0
I0
tp584
a(I1
I0
F192.0
F1.0
I72
I9
I16
I0
I0
tp585
a(I1
I0
F192.0
F0.96666666666666667
I72
I3
I8
I0
I0
tp586
a(I2
I0
F192.0
F2.0
I72
I5
I2
I0
I0
tp587
a(I3
I0
F192.0
F0.66666666666666663
I72
I21
I16
I0
I0
tp588
a(I3
I0
F192.0
F0.66666666666666663
I72
I7
I4
I0
I0
tp589
a(I2
I0
F192.0
F2.0
I72
I21
I10
I0
I0
tp590
a(I3
I0
F192.66666666666669
F0.33333333333333331
I72
I21
I16
I0
I0
tp591
a(I3
I0
F192.66666666666669
F0.33333333333333331
I72
I7
I4
I0
I0
tp592
a(I3
I0
F193.0
F0.66666666666666663
I72
I21
I16
I0
I0
tp593
a(I3
I0
F193.0
F0.66666666666666663
I72
I7
I4
I0
I0
tp594
a(I3
I0
F193.66666666666669
F0.33333333333333331
I72
I21
I16
I0
I0
tp595
a(I3
I0
F193.66666666666669
F0.33333333333333331
I72
I7
I4
I0
I0
tp596
a(I1
I0
F193.66666666666669
F0.33333333333333331
I72
I3
I8
I0
I0
tp597
a(I3
I0
F194.0
F1.0
I72
I7
I4
I0
I0
tp598
a(I1
I0
F194.0
F1.0
I72
I9
I16
I0
I0
tp599
a(I1
I0
F194.0
F1.0
I72
I3
I8
I0
I0
tp600
a(I3
I0
F194.0
F1.0
I72
I21
I16
I0
I0
tp601
a(I2
I0
F195.0
F2.0
I72
I63
I16
I0
I0
tp602
a(I2
I0
F195.0
F1.9666666666666666
I72
I21
I8
I0
I0
tp603
a(I1
I0
F196.0
F0.69999999999999996
I72
I9
I16
I0
I0
tp604
a(I1
I0
F196.66666666666669
F0.33333333333333331
I72
I3
I8
I0
I0
tp605
a(I1
I0
F197.0
F1.0
I72
I9
I10
I0
I0
tp606
a(I2
I0
F197.0
F2.0
I72
I14
I5
I0
I0
tp607
a(I2
I0
F197.0
F1.9666666666666666
I72
I12
I5
I0
I0
tp608
a(I1
I0
F198.66666666666669
F0.33333333333333331
I72
I27
I64
I0
I0
tp609
a(I1
I0
F199.0
F1.0
I72
I33
I32
I0
I0
tp610
a(I2
I0
F199.0
F1.0
I72
I39
I16
I0
I0
tp611
a(I2
I0
F199.0
F1.0
I72
I33
I16
I0
I0
tp612
a(I2
I0
F200.0
F2.0
I72
I5
I2
I0
I0
tp613
a(I2
I0
F200.0
F2.0
I72
I21
I10
I0
I0
tp614
a(I1
I0
F200.0
F1.0
I72
I9
I16
I0
I0
tp615
a(I3
I0
F200.0
F0.66666666666666663
I72
I21
I16
I0
I0
tp616
a(I3
I0
F200.0
F0.66666666666666663
I72
I7
I4
I0
I0
tp617
a(I1
I0
F200.0
F1.0
I72
I3
I8
I0
I0
tp618
a(I3
I0
F200.66666666666669
F0.33333333333333331
I72
I21
I16
I0
I0
tp619
a(I3
I0
F200.66666666666669
F0.33333333333333331
I72
I7
I4
I0
I0
tp620
a(I3
I0
F201.0
F0.66666666666666663
I72
I21
I16
I0
I0
tp621
a(I3
I0
F201.0
F0.66666666666666663
I72
I7
I4
I0
I0
tp622
a(I1
I0
F201.66666666666669
F0.33333333333333331
I72
I3
I8
I0
I0
tp623
a(I3
I0
F201.66666666666669
F0.33333333333333331
I72
I21
I16
I0
I0
tp624
a(I3
I0
F201.66666666666669
F0.33333333333333331
I72
I7
I4
I0
I0
tp625
a(I1
I0
F202.0
F1.0
I72
I3
I8
I0
I0
tp626
a(I1
I0
F202.0
F1.0
I72
I9
I16
I0
I0
tp627
a(I3
I0
F202.0
F1.0
I72
I21
I16
I0
I0
tp628
a(I3
I0
F202.0
F1.0
I72
I7
I4
I0
I0
tp629
a(I2
I0
F202.66666666666669
F2.3333333333333335
I72
I63
I16
I0
I0
tp630
a(I2
I0
F203.0
F1.9666666666666666
I72
I21
I8
I0
I0
tp631
a(I1
I0
F204.0
F0.69999999999999996
I72
I9
I16
I0
I0
tp632
a(I1
I0
F204.66666666666669
F0.33333333333333331
I72
I3
I8
I0
I0
tp633
a(I2
I0
F205.0
F2.0
I72
I14
I5
I0
I0
tp634
a(I2
I0
F205.0
F1.9666666666666666
I72
I12
I5
I0
I0
tp635
a(I1
I0
F205.0
F1.0
I72
I9
I10
I0
I0
tp636
a(I1
I0
F206.66666666666669
F0.33333333333333331
I72
I27
I64
I0
I0
tp637
a(I1
I0
F207.0
F1.0
I72
I33
I32
I0
I0
tp638
a(I2
I0
F207.0
F1.0
I72
I39
I16
I0
I0
tp639
a(I2
I0
F207.0
F1.0
I72
I33
I16
I0
I0
tp640
a(I3
I0
F207.66666666666669
F0.5
I72
I21
I16
I0
I0
tp641
a(I1
I0
F208.0
F0.96666666666666667
I72
I3
I8
I0
I0
tp642
a(I2
I0
F208.0
F2.0
I72
I5
I2
I0
I0
tp643
a(I3
I0
F208.0
F0.66666666666666663
I72
I21
I16
I0
I0
tp644
a(I3
I0
F208.0
F0.66666666666666663
I72
I7
I4
I0
I0
tp645
a(I2
I0
F208.0
F2.0
I72
I21
I10
I0
I0
tp646
a(I3
I0
F208.66666666666669
F0.33333333333333331
I72
I21
I16
I0
I0
tp647
a(I3
I0
F208.66666666666669
F0.33333333333333331
I72
I7
I4
I0
I0
tp648
a(I3
I0
F209.0
F0.66666666666666663
I72
I21
I16
I0
I0
tp649
a(I3
I0
F209.0
F0.66666666666666663
I72
I7
I4
I0
I0
tp650
a(I3
I0
F209.66666666666669
F0.33333333333333331
I72
I21
I16
I0
I0
tp651
a(I3
I0
F209.66666666666669
F0.33333333333333331
I72
I7
I4
I0
I0
tp652
a(I1
I1
F210.0
I2
I72
I7
I16
I0
I0
tp653
a(I3
I0
F210.0
F1.0
I72
I7
I4
I0
I0
tp654
a(I3
I0
F210.0
F1.0
I72
I21
I16
I0
I0
tp655
a(I1
I0
F212.0
F0.69999999999999996
I72
I9
I16
I0
I0
tp656
a(I1
I0
F212.66666666666669
F0.33333333333333331
I72
I3
I8
I0
I0
tp657
a(I1
I1
F214.0
I2
I72
I39
I64
I0
I0
tp658
a(I2
I0
F215.0
F1.0
I72
I39
I16
I0
I0
tp659
a(I2
I0
F215.0
F1.0
I72
I33
I16
I0
I0
tp660
a(I2
I0
F216.0
F2.0
I72
I5
I2
I0
I0
tp661
a(I2
I0
F216.0
F2.0
I72
I21
I10
I0
I0
tp662
a(I3
I0
F216.0
F0.66666666666666663
I72
I21
I16
I0
I0
tp663
a(I3
I0
F216.0
F0.66666666666666663
I72
I7
I4
I0
I0
tp664
a(I1
I0
F216.0
F1.0
I72
I3
I8
I0
I0
tp665
a(I3
I0
F216.66666666666669
F0.33333333333333331
I72
I21
I16
I0
I0
tp666
a(I3
I0
F216.66666666666669
F0.33333333333333331
I72
I7
I4
I0
I0
tp667
a(I3
I0
F217.0
F0.66666666666666663
I72
I21
I16
I0
I0
tp668
a(I3
I0
F217.0
F0.66666666666666663
I72
I7
I4
I0
I0
tp669
a(I3
I0
F217.66666666666669
F0.33333333333333331
I72
I21
I16
I0
I0
tp670
a(I3
I0
F217.66666666666669
F0.33333333333333331
I72
I7
I4
I0
I0
tp671
a(I3
I0
F218.0
F1.0
I72
I21
I16
I0
I0
tp672
a(I3
I0
F218.0
F1.0
I72
I7
I4
I0
I0
tp673
a(I1
I1
F218.0
I2
I72
I7
I16
I0
I0
tp674
a(I1
I0
F220.0
F0.69999999999999996
I72
I9
I16
I0
I0
tp675
a(I1
I0
F220.66666666666669
F0.33333333333333331
I72
I3
I8
I0
I0
tp676
a(I2
I0
F223.0
F1.0
I72
I39
I16
I0
I0
tp677
a(I2
I0
F223.0
F1.0
I72
I33
I16
I0
I0
tp678
a(I1
I1
F223.0
I1
I72
I45
I128
I0
I0
tp679
a(I1
I0
F224.0
F0.96666666666666667
I72
I3
I8
I0
I0
tp680
a(I2
I0
F224.0
F2.0
I72
I5
I2
I0
I0
tp681
a(I3
I0
F224.0
F0.66666666666666663
I72
I21
I16
I0
I0
tp682
a(I3
I0
F224.0
F0.66666666666666663
I72
I7
I4
I0
I0
tp683
a(I2
I0
F224.0
F2.0
I72
I21
I10
I0
I0
tp684
a(I3
I0
F224.66666666666669
F0.33333333333333331
I72
I21
I16
I0
I0
tp685
a(I3
I0
F224.66666666666669
F0.33333333333333331
I72
I7
I4
I0
I0
tp686
a(I3
I0
F225.0
F0.66666666666666663
I72
I21
I16
I0
I0
tp687
a(I3
I0
F225.0
F0.66666666666666663
I72
I7
I4
I0
I0
tp688
a(I3
I0
F225.66666666666669
F0.33333333333333331
I72
I21
I16
I0
I0
tp689
a(I3
I0
F225.66666666666669
F0.33333333333333331
I72
I7
I4
I0
I0
tp690
a(I3
I0
F226.0
F1.0
I72
I7
I4
I0
I0
tp691
a(I3
I0
F226.0
F1.0
I72
I21
I16
I0
I0
tp692
a(I1
I1
F226.0
I2
I72
I7
I16
I0
I0
tp693
a(I1
I0
F228.0
F0.69999999999999996
I72
I9
I16
I0
I0
tp694
a(I1
I0
F228.66666666666669
F0.33333333333333331
I72
I3
I8
I0
I0
tp695
a(I1
I1
F230.0
I2
I72
I39
I64
I0
I0
tp696
a(I2
I0
F231.0
F1.0
I72
I39
I16
I0
I0
tp697
a(I2
I0
F231.0
F1.0
I72
I33
I16
I0
I0
tp698
a(I2
I0
F232.0
F2.0
I72
I5
I2
I0
I0
tp699
a(I2
I0
F232.0
F2.0
I72
I21
I10
I0
I0
tp700
a(I3
I0
F232.0
F0.66666666666666663
I72
I21
I16
I0
I0
tp701
a(I3
I0
F232.0
F0.66666666666666663
I72
I7
I4
I0
I0
tp702
a(I1
I0
F232.0
F1.0
I72
I3
I8
I0
I0
tp703
a(I3
I0
F232.66666666666669
F0.33333333333333331
I72
I21
I16
I0
I0
tp704
a(I3
I0
F232.66666666666669
F0.33333333333333331
I72
I7
I4
I0
I0
tp705
a(I3
I0
F233.0
F0.66666666666666663
I72
I21
I16
I0
I0
tp706
a(I3
I0
F233.0
F0.66666666666666663
I72
I7
I4
I0
I0
tp707
a(I3
I0
F233.66666666666669
F0.33333333333333331
I72
I21
I16
I0
I0
tp708
a(I3
I0
F233.66666666666669
F0.33333333333333331
I72
I7
I4
I0
I0
tp709
a(I3
I0
F234.0
F1.0
I72
I21
I16
I0
I0
tp710
a(I3
I0
F234.0
F1.0
I72
I7
I4
I0
I0
tp711
a(I1
I1
F234.0
I2
I72
I7
I16
I0
I0
tp712
a(I1
I1
F236.0
F0.66666666666666663
I72
I9
I16
I0
I0
tp713
a(I1
I0
F236.66666666666669
F0.33333333333333331
I72
I3
I8
I0
I0
tp714
a(I2
I0
F239.0
F1.0
I72
I39
I16
I0
I0
tp715
a(I2
I0
F239.0
F1.0
I72
I33
I16
I0
I0
tp716
a(I1
I1
F239.0
I1
I72
I45
I128
I0
I0
tp717
a(I1
I0
F240.0
F1.0
I72
I9
I16
I0
I0
tp718
a(I1
I0
F240.0
F0.96666666666666667
I72
I3
I8
I0
I0
tp719
a(I2
I0
F240.0
F2.0
I72
I5
I2
I0
I0
tp720
a(I3
I0
F240.0
F0.66666666666666663
I72
I21
I16
I0
I0
tp721
a(I3
I0
F240.0
F0.66666666666666663
I72
I7
I4
I0
I0
tp722
a(I2
I0
F240.0
F2.0
I72
I21
I10
I0
I0
tp723
a(I3
I0
F240.66666666666669
F0.33333333333333331
I72
I7
I4
I0
I0
tp724
a(I3
I0
F240.66666666666669
F0.33333333333333331
I72
I21
I16
I0
I0
tp725
a(I3
I0
F241.0
F0.66666666666666663
I72
I21
I16
I0
I0
tp726
a(I3
I0
F241.0
F0.66666666666666663
I72
I7
I4
I0
I0
tp727
a(I3
I0
F241.66666666666669
F0.33333333333333331
I72
I21
I16
I0
I0
tp728
a(I3
I0
F241.66666666666669
F0.33333333333333331
I72
I7
I4
I0
I0
tp729
a(I1
I0
F241.66666666666669
F0.33333333333333331
I72
I3
I8
I0
I0
tp730
a(I3
I0
F242.0
F1.0
I72
I7
I4
I0
I0
tp731
a(I1
I0
F242.0
F1.0
I72
I9
I16
I0
I0
tp732
a(I1
I0
F242.0
F1.0
I72
I3
I8
I0
I0
tp733
a(I3
I0
F242.0
F1.0
I72
I21
I16
I0
I0
tp734
a(I2
I0
F243.0
F2.0
I72
I63
I16
I0
I0
tp735
a(I2
I0
F243.0
F1.9666666666666666
I72
I21
I8
I0
I0
tp736
a(I1
I0
F244.0
F0.69999999999999996
I72
I9
I16
I0
I0
tp737
a(I1
I0
F244.66666666666669
F0.33333333333333331
I72
I3
I8
I0
I0
tp738
a(I1
I0
F245.0
F1.0
I72
I9
I10
I0
I0
tp739
a(I2
I0
F245.0
F2.0
I72
I14
I5
I0
I0
tp740
a(I2
I0
F245.0
F1.9666666666666666
I72
I12
I5
I0
I0
tp741
a(I1
I0
F246.66666666666669
F0.33333333333333331
I72
I27
I64
I0
I0
tp742
a(I1
I0
F247.0
F1.0
I72
I33
I32
I0
I0
tp743
a(I2
I0
F247.0
F1.0
I72
I39
I16
I0
I0
tp744
a(I2
I0
F247.0
F1.0
I72
I33
I16
I0
I0
tp745
a(I2
I0
F248.0
F2.0
I72
I5
I2
I0
I0
tp746
a(I2
I0
F248.0
F2.0
I72
I21
I10
I0
I0
tp747
a(I1
I0
F248.0
F1.0
I72
I9
I16
I0
I0
tp748
a(I3
I0
F248.0
F0.66666666666666663
I72
I21
I16
I0
I0
tp749
a(I3
I0
F248.0
F0.66666666666666663
I72
I7
I4
I0
I0
tp750
a(I1
I0
F248.0
F1.0
I72
I3
I8
I0
I0
tp751
a(I3
I0
F248.66666666666669
F0.33333333333333331
I72
I21
I16
I0
I0
tp752
a(I3
I0
F248.66666666666669
F0.33333333333333331
I72
I7
I4
I0
I0
tp753
a(I3
I0
F249.0
F0.66666666666666663
I72
I21
I16
I0
I0
tp754
a(I3
I0
F249.0
F0.66666666666666663
I72
I7
I4
I0
I0
tp755
a(I1
I0
F249.66666666666669
F0.33333333333333331
I72
I3
I8
I0
I0
tp756
a(I3
I0
F249.66666666666669
F0.33333333333333331
I72
I21
I16
I0
I0
tp757
a(I3
I0
F249.66666666666669
F0.33333333333333331
I72
I7
I4
I0
I0
tp758
a(I1
I0
F250.0
F1.0
I72
I3
I8
I0
I0
tp759
a(I1
I0
F250.0
F1.0
I72
I9
I16
I0
I0
tp760
a(I3
I0
F250.0
F1.0
I72
I21
I16
I0
I0
tp761
a(I3
I0
F250.0
F1.0
I72
I7
I4
I0
I0
tp762
a(I2
I0
F250.66666666666669
F2.3333333333333335
I72
I63
I16
I0
I0
tp763
a(I2
I0
F251.0
F1.9666666666666666
I72
I21
I8
I0
I0
tp764
a(I1
I0
F252.0
F0.69999999999999996
I72
I9
I16
I0
I0
tp765
a(I1
I0
F252.66666666666669
F0.33333333333333331
I72
I3
I8
I0
I0
tp766
a(I2
I0
F253.0
F1.9666666666666666
I72
I12
I5
I0
I0
tp767
a(I1
I0
F253.0
F1.0
I72
I9
I10
I0
I0
tp768
a(I2
I0
F253.0
F2.0
I72
I14
I5
I0
I0
tp769
a(I1
I0
F254.66666666666669
F0.33333333333333331
I72
I27
I64
I0
I0
tp770
a(I1
I0
F255.0
F1.0
I72
I33
I32
I0
I0
tp771
a(I2
I0
F255.0
F1.0
I72
I39
I16
I0
I0
tp772
a(I2
I0
F255.0
F1.0
I72
I33
I16
I0
I0
tp773
a(I3
I0
F255.66666666666669
F0.5
I72
I21
I16
I0
I0
tp774
a(I1
I0
F256.0
F1.0
I72
I9
I16
I0
I0
tp775
a(I1
I0
F256.0
F0.96666666666666667
I72
I3
I8
I0
I0
tp776
a(I2
I0
F256.0
F2.0
I72
I5
I2
I0
I0
tp777
a(I3
I0
F256.0
F0.66666666666666663
I72
I21
I16
I0
I0
tp778
a(I3
I0
F256.0
F0.66666666666666663
I72
I7
I4
I0
I0
tp779
a(I2
I0
F256.0
F2.0
I72
I21
I10
I0
I0
tp780
a(I3
I0
F256.66666666666669
F0.33333333333333331
I72
I21
I16
I0
I0
tp781
a(I3
I0
F256.66666666666669
F0.33333333333333331
I72
I7
I4
I0
I0
tp782
a(I3
I0
F257.0
F0.66666666666666663
I72
I21
I16
I0
I0
tp783
a(I3
I0
F257.0
F0.66666666666666663
I72
I7
I4
I0
I0
tp784
a(I3
I0
F257.66666666666669
F0.33333333333333331
I72
I21
I16
I0
I0
tp785
a(I3
I0
F257.66666666666669
F0.33333333333333331
I72
I7
I4
I0
I0
tp786
a(I1
I0
F257.66666666666669
F0.33333333333333331
I72
I3
I8
I0
I0
tp787
a(I3
I0
F258.0
F1.0
I72
I7
I4
I0
I0
tp788
a(I1
I0
F258.0
F1.0
I72
I9
I16
I0
I0
tp789
a(I1
I0
F258.0
F1.0
I72
I3
I8
I0
I0
tp790
a(I3
I0
F258.0
F1.0
I72
I21
I16
I0
I0
tp791
a(I2
I0
F259.0
F2.0
I72
I63
I16
I0
I0
tp792
a(I2
I0
F259.0
F1.9666666666666666
I72
I21
I8
I0
I0
tp793
a(I1
I0
F260.0
F0.69999999999999996
I72
I9
I16
I0
I0
tp794
a(I1
I0
F260.66666666666669
F0.33333333333333331
I72
I3
I8
I0
I0
tp795
a(I1
I0
F261.0
F1.0
I72
I9
I10
I0
I0
tp796
a(I2
I0
F261.0
F2.0
I72
I14
I5
I0
I0
tp797
a(I2
I0
F261.0
F1.9666666666666666
I72
I12
I5
I0
I0
tp798
a(I1
I0
F262.66666666666669
F0.33333333333333331
I72
I27
I64
I0
I0
tp799
a(I1
I0
F263.0
F1.0
I72
I33
I32
I0
I0
tp800
a(I2
I0
F263.0
F1.0
I72
I39
I16
I0
I0
tp801
a(I2
I0
F263.0
F1.0
I72
I33
I16
I0
I0
tp802
a(I2
I0
F264.0
F2.0
I72
I5
I2
I0
I0
tp803
a(I2
I0
F264.0
F2.0
I72
I21
I10
I0
I0
tp804
a(I1
I0
F264.0
F1.0
I72
I9
I16
I0
I0
tp805
a(I3
I0
F264.0
F0.66666666666666663
I72
I21
I16
I0
I0
tp806
a(I3
I0
F264.0
F0.66666666666666663
I72
I7
I4
I0
I0
tp807
a(I1
I0
F264.0
F1.0
I72
I3
I8
I0
I0
tp808
a(I3
I0
F264.66666666666669
F0.33333333333333331
I72
I7
I4
I0
I0
tp809
a(I3
I0
F264.66666666666669
F0.33333333333333331
I72
I21
I16
I0
I0
tp810
a(I3
I0
F265.0
F0.66666666666666663
I72
I21
I16
I0
I0
tp811
a(I3
I0
F265.0
F0.66666666666666663
I72
I7
I4
I0
I0
tp812
a(I1
I0
F265.66666666666669
F0.33333333333333331
I72
I3
I8
I0
I0
tp813
a(I3
I0
F265.66666666666669
F0.33333333333333331
I72
I21
I16
I0
I0
tp814
a(I3
I0
F265.66666666666669
F0.33333333333333331
I72
I7
I4
I0
I0
tp815
a(I1
I0
F266.0
F1.0
I72
I3
I8
I0
I0
tp816
a(I1
I0
F266.0
F1.0
I72
I9
I16
I0
I0
tp817
a(I3
I0
F266.0
F1.0
I72
I21
I16
I0
I0
tp818
a(I3
I0
F266.0
F1.0
I72
I7
I4
I0
I0
tp819
a(I2
I0
F266.66666666666669
F2.3333333333333335
I72
I63
I16
I0
I0
tp820
a(I2
I0
F267.0
F1.9666666666666666
I72
I21
I8
I0
I0
tp821
a(I1
I0
F268.0
F0.69999999999999996
I72
I9
I16
I0
I0
tp822
a(I1
I0
F268.66666666666669
F0.33333333333333331
I72
I3
I8
I0
I0
tp823
a(I2
I0
F269.0
F2.0
I72
I14
I5
I0
I0
tp824
a(I2
I0
F269.0
F1.9666666666666666
I72
I12
I5
I0
I0
tp825
a(I1
I0
F269.0
F1.0
I72
I9
I10
I0
I0
tp826
a(I1
I0
F270.66666666666669
F0.33333333333333331
I72
I27
I64
I0
I0
tp827
a(I1
I0
F271.0
F1.0
I72
I33
I32
I0
I0
tp828
a(I2
I0
F271.0
F1.0
I72
I39
I16
I0
I0
tp829
a(I2
I0
F271.0
F1.0
I72
I33
I16
I0
I0
tp830
a(I3
I0
F271.66666666666669
F0.5
I72
I21
I16
I0
I0
tp831
a(I2
I0
F272.0
F2.0
I72
I21
I10
I0
I0
tp832
a(I1
I0
F272.0
F1.0
I72
I9
I16
I0
I0
tp833
a(I1
I0
F272.0
F0.96666666666666667
I72
I3
I8
I0
I0
tp834
a(I2
I0
F272.0
F2.0
I72
I5
I2
I0
I0
tp835
a(I3
I0
F272.0
F0.66666666666666663
I72
I21
I16
I0
I0
tp836
a(I3
I0
F272.0
F0.66666666666666663
I72
I7
I4
I0
I0
tp837
a(I3
I0
F272.66666666666669
F0.33333333333333331
I72
I21
I16
I0
I0
tp838
a(I3
I0
F272.66666666666669
F0.33333333333333331
I72
I7
I4
I0
I0
tp839
a(I3
I0
F273.0
F0.66666666666666663
I72
I21
I16
I0
I0
tp840
a(I3
I0
F273.0
F0.66666666666666663
I72
I7
I4
I0
I0
tp841
a(I3
I0
F273.66666666666669
F0.33333333333333331
I72
I21
I16
I0
I0
tp842
a(I3
I0
F273.66666666666669
F0.33333333333333331
I72
I7
I4
I0
I0
tp843
a(I1
I0
F273.66666666666669
F0.33333333333333331
I72
I3
I8
I0
I0
tp844
a(I3
I0
F274.0
F1.0
I72
I7
I4
I0
I0
tp845
a(I1
I0
F274.0
F1.0
I72
I9
I16
I0
I0
tp846
a(I1
I0
F274.0
F1.0
I72
I3
I8
I0
I0
tp847
a(I3
I0
F274.0
F1.0
I72
I21
I16
I0
I0
tp848
a(I2
I0
F275.0
F2.0
I72
I63
I16
I0
I0
tp849
a(I2
I0
F275.0
F1.9666666666666666
I72
I21
I8
I0
I0
tp850
a(I1
I0
F276.0
F0.69999999999999996
I72
I9
I16
I0
I0
tp851
a(I1
I0
F276.66666666666669
F0.33333333333333331
I72
I3
I8
I0
I0
tp852
a(I1
I0
F277.0
F1.0
I72
I9
I10
I0
I0
tp853
a(I2
I0
F277.0
F2.0
I72
I14
I5
I0
I0
tp854
a(I2
I0
F277.0
F1.9666666666666666
I72
I12
I5
I0
I0
tp855
a(I1
I0
F278.66666666666669
F0.33333333333333331
I72
I27
I64
I0
I0
tp856
a(I1
I0
F279.0
F1.0
I72
I33
I32
I0
I0
tp857
a(I2
I0
F279.0
F1.0
I72
I39
I16
I0
I0
tp858
a(I2
I0
F279.0
F1.0
I72
I33
I16
I0
I0
tp859
a(I2
I0
F280.0
F2.0
I72
I5
I2
I0
I0
tp860
a(I2
I0
F280.0
F2.0
I72
I21
I10
I0
I0
tp861
a(I1
I0
F280.0
F1.0
I72
I9
I16
I0
I0
tp862
a(I3
I0
F280.0
F0.66666666666666663
I72
I21
I16
I0
I0
tp863
a(I3
I0
F280.0
F0.66666666666666663
I72
I7
I4
I0
I0
tp864
a(I1
I0
F280.0
F1.0
I72
I3
I8
I0
I0
tp865
a(I3
I0
F280.66666666666669
F0.33333333333333331
I72
I7
I4
I0
I0
tp866
a(I3
I0
F280.66666666666669
F0.33333333333333331
I72
I21
I16
I0
I0
tp867
a(I3
I0
F281.0
F0.66666666666666663
I72
I21
I16
I0
I0
tp868
a(I3
I0
F281.0
F0.66666666666666663
I72
I7
I4
I0
I0
tp869
a(I1
I0
F281.66666666666669
F0.33333333333333331
I72
I3
I8
I0
I0
tp870
a(I3
I0
F281.66666666666669
F0.33333333333333331
I72
I21
I16
I0
I0
tp871
a(I3
I0
F281.66666666666669
F0.33333333333333331
I72
I7
I4
I0
I0
tp872
a(I1
I0
F282.0
F1.0
I72
I3
I8
I0
I0
tp873
a(I1
I0
F282.0
F1.0
I72
I9
I16
I0
I0
tp874
a(I3
I0
F282.0
F1.0
I72
I21
I16
I0
I0
tp875
a(I3
I0
F282.0
F1.0
I72
I7
I4
I0
I0
tp876
a(I2
I0
F282.66666666666669
F2.3333333333333335
I72
I63
I16
I0
I0
tp877
a(I2
I0
F283.0
F1.9666666666666666
I72
I21
I8
I0
I0
tp878
a(I1
I0
F284.0
F0.69999999999999996
I72
I9
I16
I0
I0
tp879
a(I1
I0
F284.66666666666669
F0.33333333333333331
I72
I3
I8
I0
I0
tp880
a(I2
I0
F285.0
F2.0
I72
I14
I5
I0
I0
tp881
a(I2
I0
F285.0
F1.9666666666666666
I72
I12
I5
I0
I0
tp882
a(I1
I0
F285.0
F1.0
I72
I9
I10
I0
I0
tp883
a(I1
I0
F286.66666666666669
F0.33333333333333331
I72
I27
I64
I0
I0
tp884
a(I1
I0
F287.0
F1.0
I72
I33
I32
I0
I0
tp885
a(I2
I0
F287.0
F1.0
I72
I39
I16
I0
I0
tp886
a(I2
I0
F287.0
F1.0
I72
I33
I16
I0
I0
tp887
a(I3
I0
F287.66666666666669
F0.5
I72
I21
I16
I0
I0
tp888
a(I1
I0
F288.0
F1.0
I72
I9
I16
I0
I0
tp889
a(I1
I0
F288.0
F0.96666666666666667
I72
I3
I8
I0
I0
tp890
a(I2
I0
F288.0
F2.0
I72
I5
I2
I0
I0
tp891
a(I3
I0
F288.0
F0.66666666666666663
I72
I21
I16
I0
I0
tp892
a(I3
I0
F288.0
F0.66666666666666663
I72
I7
I4
I0
I0
tp893
a(I2
I0
F288.0
F2.0
I72
I21
I10
I0
I0
tp894
a(I3
I0
F288.66666666666669
F0.33333333333333331
I72
I21
I16
I0
I0
tp895
a(I3
I0
F288.66666666666669
F0.33333333333333331
I72
I7
I4
I0
I0
tp896
a(I3
I0
F289.0
F0.66666666666666663
I72
I21
I16
I0
I0
tp897
a(I3
I0
F289.0
F0.66666666666666663
I72
I7
I4
I0
I0
tp898
a(I3
I0
F289.66666666666669
F0.33333333333333331
I72
I21
I16
I0
I0
tp899
a(I3
I0
F289.66666666666669
F0.33333333333333331
I72
I7
I4
I0
I0
tp900
a(I1
I0
F289.66666666666669
F0.33333333333333331
I72
I3
I8
I0
I0
tp901
a(I3
I0
F290.0
F1.0
I72
I7
I4
I0
I0
tp902
a(I1
I0
F290.0
F1.0
I72
I9
I16
I0
I0
tp903
a(I1
I0
F290.0
F1.0
I72
I3
I8
I0
I0
tp904
a(I3
I0
F290.0
F1.0
I72
I21
I16
I0
I0
tp905
a(I2
I0
F291.0
F2.0
I72
I63
I16
I0
I0
tp906
a(I2
I0
F291.0
F1.9666666666666666
I72
I21
I8
I0
I0
tp907
a(I1
I0
F292.0
F0.69999999999999996
I72
I9
I16
I0
I0
tp908
a(I1
I0
F292.66666666666669
F0.33333333333333331
I72
I3
I8
I0
I0
tp909
a(I1
I0
F293.0
F1.0
I72
I9
I10
I0
I0
tp910
a(I2
I0
F293.0
F2.0
I72
I14
I5
I0
I0
tp911
a(I2
I0
F293.0
F1.9666666666666666
I72
I12
I5
I0
I0
tp912
a(I1
I0
F294.66666666666669
F0.33333333333333331
I72
I27
I64
I0
I0
tp913
a(I1
I0
F295.0
F1.0
I72
I33
I32
I0
I0
tp914
a(I2
I0
F295.0
F1.0
I72
I39
I16
I0
I0
tp915
a(I2
I0
F295.0
F1.0
I72
I33
I16
I0
I0
tp916
a(I2
I0
F296.0
F2.0
I72
I5
I2
I0
I0
tp917
a(I2
I0
F296.0
F2.0
I72
I21
I10
I0
I0
tp918
a(I1
I0
F296.0
F1.0
I72
I9
I16
I0
I0
tp919
a(I3
I0
F296.0
F0.66666666666666663
I72
I21
I16
I0
I0
tp920
a(I3
I0
F296.0
F0.66666666666666663
I72
I7
I4
I0
I0
tp921
a(I1
I0
F296.0
F1.0
I72
I3
I8
I0
I0
tp922
a(I3
I0
F296.66666666666669
F0.33333333333333331
I72
I7
I4
I0
I0
tp923
a(I3
I0
F296.66666666666669
F0.33333333333333331
I72
I21
I16
I0
I0
tp924
a(I3
I0
F297.0
F0.66666666666666663
I72
I21
I16
I0
I0
tp925
a(I3
I0
F297.0
F0.66666666666666663
I72
I7
I4
I0
I0
tp926
a(I1
I0
F297.66666666666669
F0.33333333333333331
I72
I3
I8
I0
I0
tp927
a(I3
I0
F297.66666666666669
F0.33333333333333331
I72
I21
I16
I0
I0
tp928
a(I3
I0
F297.66666666666669
F0.33333333333333331
I72
I7
I4
I0
I0
tp929
a(I1
I0
F298.0
F1.0
I72
I3
I8
I0
I0
tp930
a(I1
I0
F298.0
F1.0
I72
I9
I16
I0
I0
tp931
a(I3
I0
F298.0
F1.0
I72
I21
I16
I0
I0
tp932
a(I3
I0
F298.0
F1.0
I72
I7
I4
I0
I0
tp933
a(I2
I0
F298.66666666666669
F2.3333333333333335
I72
I63
I16
I0
I0
tp934
a(I2
I0
F299.0
F1.9666666666666666
I72
I21
I8
I0
I0
tp935
a(I1
I0
F300.0
F0.69999999999999996
I72
I9
I16
I0
I0
tp936
a(I1
I0
F300.66666666666669
F0.33333333333333331
I72
I3
I8
I0
I0
tp937
a(I2
I0
F301.0
F2.0
I72
I14
I5
I0
I0
tp938
a(I2
I0
F301.0
F1.9666666666666666
I72
I12
I5
I0
I0
tp939
a(I1
I0
F301.0
F1.0
I72
I9
I10
I0
I0
tp940
a(I1
I0
F302.66666666666669
F0.33333333333333331
I72
I27
I64
I0
I0
tp941
a(I1
I0
F303.0
F1.0
I72
I33
I32
I0
I0
tp942
a(I2
I0
F303.0
F1.0
I72
I39
I16
I0
I0
tp943
a(I2
I0
F303.0
F1.0
I72
I33
I16
I0
I0
tp944
a(I3
I0
F303.66666666666669
F0.5
I72
I21
I16
I0
I0
tp945
a(I1
I0
F304.0
F1.0
I72
I9
I16
I0
I0
tp946
a(I1
I0
F304.0
F0.96666666666666667
I72
I3
I8
I0
I0
tp947
a(I2
I0
F304.0
F2.0
I72
I5
I2
I0
I0
tp948
a(I3
I0
F304.0
F0.66666666666666663
I72
I21
I16
I0
I0
tp949
a(I3
I0
F304.0
F0.66666666666666663
I72
I7
I4
I0
I0
tp950
a(I2
I0
F304.0
F2.0
I72
I21
I10
I0
I0
tp951
a(I3
I0
F304.66666666666669
F0.33333333333333331
I72
I21
I16
I0
I0
tp952
a(I3
I0
F304.66666666666669
F0.33333333333333331
I72
I7
I4
I0
I0
tp953
a(I3
I0
F305.0
F0.66666666666666663
I72
I21
I16
I0
I0
tp954
a(I3
I0
F305.0
F0.66666666666666663
I72
I7
I4
I0
I0
tp955
a(I3
I0
F305.66666666666669
F0.33333333333333331
I72
I21
I16
I0
I0
tp956
a(I3
I0
F305.66666666666669
F0.33333333333333331
I72
I7
I4
I0
I0
tp957
a(I1
I0
F305.66666666666669
F0.33333333333333331
I72
I3
I8
I0
I0
tp958
a(I3
I0
F306.0
F1.0
I72
I7
I4
I0
I0
tp959
a(I1
I0
F306.0
F1.0
I72
I9
I16
I0
I0
tp960
a(I1
I0
F306.0
F1.0
I72
I3
I8
I0
I0
tp961
a(I3
I0
F306.0
F1.0
I72
I21
I16
I0
I0
tp962
a(I2
I0
F307.0
F2.0
I72
I63
I16
I0
I0
tp963
a(I2
I0
F307.0
F1.9666666666666666
I72
I21
I8
I0
I0
tp964
a(I1
I0
F308.0
F0.69999999999999996
I72
I9
I16
I0
I0
tp965
a(I1
I0
F308.66666666666669
F0.33333333333333331
I72
I3
I8
I0
I0
tp966
a(I1
I0
F309.0
F1.0
I72
I9
I10
I0
I0
tp967
a(I2
I0
F309.0
F2.0
I72
I14
I5
I0
I0
tp968
a(I2
I0
F309.0
F1.9666666666666666
I72
I12
I5
I0
I0
tp969
a(I1
I0
F310.66666666666669
F0.33333333333333331
I72
I27
I64
I0
I0
tp970
a(I1
I0
F311.0
F1.0
I72
I33
I32
I0
I0
tp971
a(I2
I0
F311.0
F1.0
I72
I39
I16
I0
I0
tp972
a(I2
I0
F311.0
F1.0
I72
I33
I16
I0
I0
tp973
a(I2
I0
F312.0
F2.0
I72
I5
I2
I0
I0
tp974
a(I2
I0
F312.0
F2.0
I72
I21
I10
I0
I0
tp975
a(I1
I0
F312.0
F1.0
I72
I9
I16
I0
I0
tp976
a(I3
I0
F312.0
F0.66666666666666663
I72
I21
I16
I0
I0
tp977
a(I3
I0
F312.0
F0.66666666666666663
I72
I7
I4
I0
I0
tp978
a(I1
I0
F312.0
F1.0
I72
I3
I8
I0
I0
tp979
a(I3
I0
F312.66666666666669
F0.33333333333333331
I72
I7
I4
I0
I0
tp980
a(I3
I0
F312.66666666666669
F0.33333333333333331
I72
I21
I16
I0
I0
tp981
a(I3
I0
F313.0
F0.66666666666666663
I72
I21
I16
I0
I0
tp982
a(I3
I0
F313.0
F0.66666666666666663
I72
I7
I4
I0
I0
tp983
a(I1
I0
F313.66666666666669
F0.33333333333333331
I72
I3
I8
I0
I0
tp984
a(I3
I0
F313.66666666666669
F0.33333333333333331
I72
I21
I16
I0
I0
tp985
a(I3
I0
F313.66666666666669
F0.33333333333333331
I72
I7
I4
I0
I0
tp986
a(I1
I0
F314.0
F1.0
I72
I3
I8
I0
I0
tp987
a(I1
I0
F314.0
F1.0
I72
I9
I16
I0
I0
tp988
a(I3
I0
F314.0
F1.0
I72
I21
I16
I0
I0
tp989
a(I3
I0
F314.0
F1.0
I72
I7
I4
I0
I0
tp990
a(I2
I0
F314.66666666666669
F2.3333333333333335
I72
I63
I16
I0
I0
tp991
a(I2
I0
F315.0
F1.9666666666666666
I72
I21
I8
I0
I0
tp992
a(I1
I0
F316.0
F0.69999999999999996
I72
I9
I16
I0
I0
tp993
a(I1
I0
F316.66666666666669
F0.33333333333333331
I72
I3
I8
I0
I0
tp994
a(I2
I0
F317.0
F2.0
I72
I14
I5
I0
I0
tp995
a(I2
I0
F317.0
F1.9666666666666666
I72
I12
I5
I0
I0
tp996
a(I1
I0
F317.0
F1.0
I72
I9
I10
I0
I0
tp997
a(I1
I0
F318.66666666666669
F0.33333333333333331
I72
I27
I64
I0
I0
tp998
a(I1
I0
F319.0
F1.0
I72
I33
I32
I0
I0
tp999
a(I2
I0
F319.0
F1.0
I72
I39
I16
I0
I0
tp1000
a(I2
I0
F319.0
F1.0
I72
I33
I16
I0
I0
tp1001
a(I3
I0
F319.66666666666669
F0.5
I72
I21
I16
I0
I0
tp1002
a(I2
I0
F320.0
F2.0
I72
I5
I2
I0
I0
tp1003
a(I3
I0
F320.0
F0.66666666666666663
I72
I21
I16
I0
I0
tp1004
a(I3
I0
F320.0
F0.66666666666666663
I72
I7
I4
I0
I0
tp1005
a(I2
I0
F320.0
F2.0
I72
I21
I10
I0
I0
tp1006
a(I1
I0
F320.0
F1.0
I72
I9
I16
I0
I0
tp1007
a(I1
I0
F320.0
F0.96666666666666667
I72
I3
I8
I0
I0
tp1008
a(I3
I0
F320.66666666666669
F0.33333333333333331
I72
I21
I16
I0
I0
tp1009
a(I3
I0
F320.66666666666669
F0.33333333333333331
I72
I7
I4
I0
I0
tp1010
a(I3
I0
F321.0
F0.66666666666666663
I72
I21
I16
I0
I0
tp1011
a(I3
I0
F321.0
F0.66666666666666663
I72
I7
I4
I0
I0
tp1012
a(I3
I0
F321.66666666666669
F0.33333333333333331
I72
I21
I16
I0
I0
tp1013
a(I3
I0
F321.66666666666669
F0.33333333333333331
I72
I7
I4
I0
I0
tp1014
a(I1
I0
F321.66666666666669
F0.33333333333333331
I72
I3
I8
I0
I0
tp1015
a(I3
I0
F322.0
F1.0
I72
I7
I4
I0
I0
tp1016
a(I1
I0
F322.0
F1.0
I72
I9
I16
I0
I0
tp1017
a(I1
I0
F322.0
F1.0
I72
I3
I8
I0
I0
tp1018
a(I3
I0
F322.0
F1.0
I72
I21
I16
I0
I0
tp1019
a(I2
I0
F323.0
F2.0
I72
I63
I16
I0
I0
tp1020
a(I2
I0
F323.0
F1.9666666666666666
I72
I21
I8
I0
I0
tp1021
a(I1
I0
F324.0
F0.69999999999999996
I72
I9
I16
I0
I0
tp1022
a(I1
I0
F324.66666666666669
F0.33333333333333331
I72
I3
I8
I0
I0
tp1023
a(I1
I0
F325.0
F1.0
I72
I9
I10
I0
I0
tp1024
a(I2
I0
F325.0
F2.0
I72
I14
I5
I0
I0
tp1025
a(I2
I0
F325.0
F1.9666666666666666
I72
I12
I5
I0
I0
tp1026
a(I1
I0
F326.66666666666669
F0.33333333333333331
I72
I27
I64
I0
I0
tp1027
a(I1
I0
F327.0
F1.0
I72
I33
I32
I0
I0
tp1028
a(I2
I0
F327.0
F1.0
I72
I39
I16
I0
I0
tp1029
a(I2
I0
F327.0
F1.0
I72
I33
I16
I0
I0
tp1030
a(I2
I0
F328.0
F2.0
I72
I5
I2
I0
I0
tp1031
a(I2
I0
F328.0
F2.0
I72
I21
I10
I0
I0
tp1032
a(I1
I0
F328.0
F1.0
I72
I9
I16
I0
I0
tp1033
a(I3
I0
F328.0
F0.66666666666666663
I72
I21
I16
I0
I0
tp1034
a(I3
I0
F328.0
F0.66666666666666663
I72
I7
I4
I0
I0
tp1035
a(I1
I0
F328.0
F1.0
I72
I3
I8
I0
I0
tp1036
a(I3
I0
F328.66666666666669
F0.33333333333333331
I72
I7
I4
I0
I0
tp1037
a(I3
I0
F328.66666666666669
F0.33333333333333331
I72
I21
I16
I0
I0
tp1038
a(I3
I0
F329.0
F0.66666666666666663
I72
I21
I16
I0
I0
tp1039
a(I3
I0
F329.0
F0.66666666666666663
I72
I7
I4
I0
I0
tp1040
a(I1
I0
F329.66666666666669
F0.33333333333333331
I72
I3
I8
I0
I0
tp1041
a(I3
I0
F329.66666666666669
F0.33333333333333331
I72
I21
I16
I0
I0
tp1042
a(I3
I0
F329.66666666666669
F0.33333333333333331
I72
I7
I4
I0
I0
tp1043
a(I1
I0
F330.0
F1.0
I72
I3
I8
I0
I0
tp1044
a(I1
I0
F330.0
F1.0
I72
I9
I16
I0
I0
tp1045
a(I3
I0
F330.0
F1.0
I72
I21
I16
I0
I0
tp1046
a(I3
I0
F330.0
F1.0
I72
I7
I4
I0
I0
tp1047
a(I2
I0
F330.66666666666669
F2.3333333333333335
I72
I63
I16
I0
I0
tp1048
a(I2
I0
F331.0
F1.9666666666666666
I72
I21
I8
I0
I0
tp1049
a(I1
I0
F332.0
F0.69999999999999996
I72
I9
I16
I0
I0
tp1050
a(I1
I0
F332.66666666666669
F0.33333333333333331
I72
I3
I8
I0
I0
tp1051
a(I2
I0
F333.0
F2.0
I72
I14
I5
I0
I0
tp1052
a(I2
I0
F333.0
F1.9666666666666666
I72
I12
I5
I0
I0
tp1053
a(I1
I0
F333.0
F1.0
I72
I9
I10
I0
I0
tp1054
a(I1
I0
F334.66666666666669
F0.33333333333333331
I72
I27
I64
I0
I0
tp1055
a(I1
I0
F335.0
F1.0
I72
I33
I32
I0
I0
tp1056
a(I2
I0
F335.0
F1.0
I72
I39
I16
I0
I0
tp1057
a(I2
I0
F335.0
F1.0
I72
I33
I16
I0
I0
tp1058
a(I3
I0
F335.66666666666669
F0.5
I72
I21
I16
I0
I0
tp1059
a(I1
I0
F336.0
F1.0
I72
I9
I16
I0
I0
tp1060
a(I1
I0
F336.0
F0.96666666666666667
I72
I3
I8
I0
I0
tp1061
a(I2
I0
F336.0
F2.0
I72
I5
I2
I0
I0
tp1062
a(I3
I0
F336.0
F0.66666666666666663
I72
I21
I16
I0
I0
tp1063
a(I3
I0
F336.0
F0.66666666666666663
I72
I7
I4
I0
I0
tp1064
a(I2
I0
F336.0
F2.0
I72
I21
I10
I0
I0
tp1065
a(I3
I0
F336.66666666666669
F0.33333333333333331
I72
I21
I16
I0
I0
tp1066
a(I3
I0
F336.66666666666669
F0.33333333333333331
I72
I7
I4
I0
I0
tp1067
a(I3
I0
F337.0
F0.66666666666666663
I72
I21
I16
I0
I0
tp1068
a(I3
I0
F337.0
F0.66666666666666663
I72
I7
I4
I0
I0
tp1069
a(I3
I0
F337.66666666666669
F0.33333333333333331
I72
I21
I16
I0
I0
tp1070
a(I3
I0
F337.66666666666669
F0.33333333333333331
I72
I7
I4
I0
I0
tp1071
a(I1
I0
F337.66666666666669
F0.33333333333333331
I72
I3
I8
I0
I0
tp1072
a(I3
I0
F338.0
F1.0
I72
I7
I4
I0
I0
tp1073
a(I1
I0
F338.0
F1.0
I72
I9
I16
I0
I0
tp1074
a(I1
I0
F338.0
F1.0
I72
I3
I8
I0
I0
tp1075
a(I3
I0
F338.0
F1.0
I72
I21
I16
I0
I0
tp1076
a(I2
I0
F339.0
F2.0
I72
I63
I16
I0
I0
tp1077
a(I2
I0
F339.0
F1.9666666666666666
I72
I21
I8
I0
I0
tp1078
a(I1
I0
F340.0
F0.69999999999999996
I72
I9
I16
I0
I0
tp1079
a(I1
I0
F340.66666666666669
F0.33333333333333331
I72
I3
I8
I0
I0
tp1080
a(I1
I0
F341.0
F1.0
I72
I9
I10
I0
I0
tp1081
a(I2
I0
F341.0
F2.0
I72
I14
I5
I0
I0
tp1082
a(I2
I0
F341.0
F1.9666666666666666
I72
I12
I5
I0
I0
tp1083
a(I1
I0
F342.66666666666669
F0.33333333333333331
I72
I27
I64
I0
I0
tp1084
a(I1
I0
F343.0
F1.0
I72
I33
I32
I0
I0
tp1085
a(I2
I0
F343.0
F1.0
I72
I39
I16
I0
I0
tp1086
a(I2
I0
F343.0
F1.0
I72
I33
I16
I0
I0
tp1087
a(I2
I0
F344.0
F2.0
I72
I5
I2
I0
I0
tp1088
a(I2
I0
F344.0
F2.0
I72
I21
I10
I0
I0
tp1089
a(I1
I0
F344.0
F1.0
I72
I9
I16
I0
I0
tp1090
a(I3
I0
F344.0
F0.66666666666666663
I72
I21
I16
I0
I0
tp1091
a(I3
I0
F344.0
F0.66666666666666663
I72
I7
I4
I0
I0
tp1092
a(I1
I0
F344.0
F1.0
I72
I3
I8
I0
I0
tp1093
a(I3
I0
F344.66666666666669
F0.33333333333333331
I72
I7
I4
I0
I0
tp1094
a(I3
I0
F344.66666666666669
F0.33333333333333331
I72
I21
I16
I0
I0
tp1095
a(I3
I0
F345.0
F0.66666666666666663
I72
I21
I16
I0
I0
tp1096
a(I3
I0
F345.0
F0.66666666666666663
I72
I7
I4
I0
I0
tp1097
a(I1
I0
F345.66666666666669
F0.33333333333333331
I72
I3
I8
I0
I0
tp1098
a(I3
I0
F345.66666666666669
F0.33333333333333331
I72
I21
I16
I0
I0
tp1099
a(I3
I0
F345.66666666666669
F0.33333333333333331
I72
I7
I4
I0
I0
tp1100
a(I1
I0
F346.0
F1.0
I72
I3
I8
I0
I0
tp1101
a(I1
I0
F346.0
F1.0
I72
I9
I16
I0
I0
tp1102
a(I3
I0
F346.0
F1.0
I72
I21
I16
I0
I0
tp1103
a(I3
I0
F346.0
F1.0
I72
I7
I4
I0
I0
tp1104
a(I2
I0
F346.66666666666669
F2.3333333333333335
I72
I63
I16
I0
I0
tp1105
a(I2
I0
F347.0
F1.9666666666666666
I72
I21
I8
I0
I0
tp1106
a(I1
I0
F348.0
F0.69999999999999996
I72
I9
I16
I0
I0
tp1107
a(I1
I0
F348.66666666666669
F0.33333333333333331
I72
I3
I8
I0
I0
tp1108
a(I2
I0
F349.0
F2.0
I72
I14
I5
I0
I0
tp1109
a(I2
I0
F349.0
F1.9666666666666666
I72
I12
I5
I0
I0
tp1110
a(I1
I0
F349.0
F1.0
I72
I9
I10
I0
I0
tp1111
a(I1
I0
F350.66666666666669
F0.33333333333333331
I72
I27
I64
I0
I0
tp1112
a(I1
I0
F351.0
F1.0
I72
I33
I32
I0
I0
tp1113
a(I2
I0
F351.0
F1.0
I72
I39
I16
I0
I0
tp1114
a(I2
I0
F351.0
F1.0
I72
I33
I16
I0
I0
tp1115
a(I3
I0
F351.66666666666669
F0.5
I72
I21
I16
I0
I0
tp1116
a(I1
I0
F352.0
F1.0
I72
I9
I16
I0
I0
tp1117
a(I1
I0
F352.0
F0.96666666666666667
I72
I3
I8
I0
I0
tp1118
a(I2
I0
F352.0
F2.0
I72
I5
I2
I0
I0
tp1119
a(I3
I0
F352.0
F0.66666666666666663
I72
I21
I16
I0
I0
tp1120
a(I3
I0
F352.0
F0.66666666666666663
I72
I7
I4
I0
I0
tp1121
a(I2
I0
F352.0
F2.0
I72
I21
I10
I0
I0
tp1122
a(I3
I0
F352.66666666666669
F0.33333333333333331
I72
I21
I16
I0
I0
tp1123
a(I3
I0
F352.66666666666669
F0.33333333333333331
I72
I7
I4
I0
I0
tp1124
a(I3
I0
F353.0
F0.66666666666666663
I72
I21
I16
I0
I0
tp1125
a(I3
I0
F353.0
F0.66666666666666663
I72
I7
I4
I0
I0
tp1126
a(I3
I0
F353.66666666666669
F0.33333333333333331
I72
I21
I16
I0
I0
tp1127
a(I3
I0
F353.66666666666669
F0.33333333333333331
I72
I7
I4
I0
I0
tp1128
a(I1
I0
F353.66666666666669
F0.33333333333333331
I72
I3
I8
I0
I0
tp1129
a(I3
I0
F354.0
F1.0
I72
I7
I4
I0
I0
tp1130
a(I1
I0
F354.0
F1.0
I72
I9
I16
I0
I0
tp1131
a(I1
I0
F354.0
F1.0
I72
I3
I8
I0
I0
tp1132
a(I3
I0
F354.0
F1.0
I72
I21
I16
I0
I0
tp1133
a(I2
I0
F355.0
F2.0
I72
I63
I16
I0
I0
tp1134
a(I2
I0
F355.0
F1.9666666666666666
I72
I21
I8
I0
I0
tp1135
a(I1
I0
F356.0
F0.69999999999999996
I72
I9
I16
I0
I0
tp1136
a(I1
I0
F356.66666666666669
F0.33333333333333331
I72
I3
I8
I0
I0
tp1137
a(I1
I0
F357.0
F1.0
I72
I9
I10
I0
I0
tp1138
a(I2
I0
F357.0
F2.0
I72
I14
I5
I0
I0
tp1139
a(I2
I0
F357.0
F1.9666666666666666
I72
I12
I5
I0
I0
tp1140
a(I1
I0
F358.66666666666669
F0.33333333333333331
I72
I27
I64
I0
I0
tp1141
a(I1
I0
F359.0
F1.0
I72
I33
I32
I0
I0
tp1142
a(I2
I0
F359.0
F1.0
I72
I39
I16
I0
I0
tp1143
a(I2
I0
F359.0
F1.0
I72
I33
I16
I0
I0
tp1144
a(I2
I0
F360.0
F2.0
I72
I5
I2
I0
I0
tp1145
a(I2
I0
F360.0
F2.0
I72
I21
I10
I0
I0
tp1146
a(I1
I0
F360.0
F1.0
I72
I9
I16
I0
I0
tp1147
a(I3
I0
F360.0
F0.66666666666666663
I72
I21
I16
I0
I0
tp1148
a(I3
I0
F360.0
F0.66666666666666663
I72
I7
I4
I0
I0
tp1149
a(I1
I0
F360.0
F1.0
I72
I3
I8
I0
I0
tp1150
a(I3
I0
F360.66666666666669
F0.33333333333333331
I72
I7
I4
I0
I0
tp1151
a(I3
I0
F360.66666666666669
F0.33333333333333331
I72
I21
I16
I0
I0
tp1152
a(I3
I0
F361.0
F0.66666666666666663
I72
I21
I16
I0
I0
tp1153
a(I3
I0
F361.0
F0.66666666666666663
I72
I7
I4
I0
I0
tp1154
a(I1
I0
F361.66666666666669
F0.33333333333333331
I72
I3
I8
I0
I0
tp1155
a(I3
I0
F361.66666666666669
F0.33333333333333331
I72
I21
I16
I0
I0
tp1156
a(I3
I0
F361.66666666666669
F0.33333333333333331
I72
I7
I4
I0
I0
tp1157
a(I1
I0
F362.0
F1.0
I72
I3
I8
I0
I0
tp1158
a(I1
I0
F362.0
F1.0
I72
I9
I16
I0
I0
tp1159
a(I3
I0
F362.0
F1.0
I72
I21
I16
I0
I0
tp1160
a(I3
I0
F362.0
F1.0
I72
I7
I4
I0
I0
tp1161
a(I2
I0
F362.66666666666669
F2.3333333333333335
I72
I63
I16
I0
I0
tp1162
a(I2
I0
F363.0
F1.9666666666666666
I72
I21
I8
I0
I0
tp1163
a(I1
I0
F364.0
F0.69999999999999996
I72
I9
I16
I0
I0
tp1164
a(I1
I0
F364.66666666666669
F0.33333333333333331
I72
I3
I8
I0
I0
tp1165
a(I2
I0
F365.0
F2.0
I72
I14
I5
I0
I0
tp1166
a(I2
I0
F365.0
F1.9666666666666666
I72
I12
I5
I0
I0
tp1167
a(I1
I0
F365.0
F1.0
I72
I9
I10
I0
I0
tp1168
a(I1
I0
F366.66666666666669
F0.33333333333333331
I72
I27
I64
I0
I0
tp1169
a(I1
I0
F367.0
F1.0
I72
I33
I32
I0
I0
tp1170
a(I2
I0
F367.0
F1.0
I72
I39
I16
I0
I0
tp1171
a(I2
I0
F367.0
F1.0
I72
I33
I16
I0
I0
tp1172
a(I3
I0
F367.66666666666669
F0.5
I72
I21
I16
I0
I0
tp1173
a(I1
I0
F368.0
F1.0
I72
I9
I16
I0
I0
tp1174
a(I1
I0
F368.0
F0.96666666666666667
I72
I3
I8
I0
I0
tp1175
a(I2
I0
F368.0
F2.0
I72
I5
I2
I0
I0
tp1176
a(I3
I0
F368.0
F0.66666666666666663
I72
I21
I16
I0
I0
tp1177
a(I3
I0
F368.0
F0.66666666666666663
I72
I7
I4
I0
I0
tp1178
a(I2
I0
F368.0
F2.0
I72
I21
I10
I0
I0
tp1179
a(I3
I0
F368.66666666666669
F0.33333333333333331
I72
I21
I16
I0
I0
tp1180
a(I3
I0
F368.66666666666669
F0.33333333333333331
I72
I7
I4
I0
I0
tp1181
a(I3
I0
F369.0
F0.66666666666666663
I72
I21
I16
I0
I0
tp1182
a(I3
I0
F369.0
F0.66666666666666663
I72
I7
I4
I0
I0
tp1183
a(I3
I0
F369.66666666666669
F0.33333333333333331
I72
I21
I16
I0
I0
tp1184
a(I3
I0
F369.66666666666669
F0.33333333333333331
I72
I7
I4
I0
I0
tp1185
a(I1
I0
F369.66666666666669
F0.33333333333333331
I72
I3
I8
I0
I0
tp1186
a(I3
I0
F370.0
F1.0
I72
I7
I4
I0
I0
tp1187
a(I1
I0
F370.0
F1.0
I72
I9
I16
I0
I0
tp1188
a(I3
I0
F370.0
F1.0
I72
I21
I16
I0
I0
tp1189
a(I1
I0
F370.0
F1.0
I72
I3
I8
I0
I0
tp1190
a(I2
I0
F371.0
F2.0
I72
I63
I16
I0
I0
tp1191
a(I2
I0
F371.0
F1.9666666666666666
I72
I21
I8
I0
I0
tp1192
a(I1
I0
F372.0
F0.69999999999999996
I72
I9
I16
I0
I0
tp1193
a(I1
I0
F372.66666666666669
F0.33333333333333331
I72
I3
I8
I0
I0
tp1194
a(I1
I0
F373.0
F1.0
I72
I9
I10
I0
I0
tp1195
a(I2
I0
F373.0
F2.0
I72
I14
I5
I0
I0
tp1196
a(I2
I0
F373.0
F1.9666666666666666
I72
I12
I5
I0
I0
tp1197
a(I2
I0
F375.0
F1.0
I72
I39
I16
I0
I0
tp1198
a(I2
I0
F375.0
F1.0
I72
I33
I16
I0
I0
tp1199
a(I2
I1
F376.0
I4
I72
I21
I10
I0
I0
tp1200
a(I2
I1
F376.0
I4
I72
I5
I2
I0
I0
tp1201
a(I3
I1
F376.0
I4
I72
I7
I4
I0
I0
tp1202
a.(lp0
.(lp0
(I1
I1
F116.0
I4
tp1
a.S'D:/utah/home/mkg/orc/Hubbard/smfcsoundtest.rat'
p0
.S'<CsoundSynthesizer>\n<CsOptions>\n\n</CsOptions>\n<CsInstruments>\nsr=44100\nksmps=16\nnchnls=2\n\n#include "ratsmfperc.orc"\n\n\tinstr 11\n\naleft\tinit\t0\naright\tinit\t0\n\nidur\t=\tp3\niamp\t=\tampdb(p4)\nifreq\t=\tp5\nkfreq\tinit\tifreq\n;kswitch\t=\t(kfreq > 294 ? 1 : 0)\naenv\ttranseg\t0, .004, 1, iamp, p3-.01, 1, .8*iamp, .006, 1, 0\naplk1\tpluck\t1, kfreq, ifreq, 11, 3, 0.0001\n;aplk2\tpluck\t1, kfreq * 1.001, ifreq, 11, 3, .0003\n;aplk3\tpluck\t1, kfreq * .995, ifreq, 11, 3, .0004\n;aosc\toscil\t1, ifreq, 11\n;afilt\trezzy\taosc, 350, 20\nkfc\t=\tifreq * 1.15\n;kfc\t=\t500\n;aplk\t=\t(aplk1+aplk2+aplk3)/3\nafilt\trezzy\taplk1, kfc, 50\nafilt\tresonr\taplk1, kfc, 40, 2\nafilt2\tresonr\tafilt, kfc, 40, 1\nadist\tdistort1 afilt2, .16, .4, .2, -.03\nascl\t=\tadist * aenv\naleft\t=\tascl\naright\t=\taleft\n\n\toutrg\t1, aleft, aright\n\tendin\n\n\n\tinstr 22\n\naleft\tinit\t0\naright\tinit\t0\nidur\t=\tp3\niamp\t=\tampdb(p4)\nifreq\t=\tp5\nkenv\ttranseg\t0, .003, 1, iamp, idur-.013, 2, iamp * .8, .01, 1, 0\nkfreq\tinit\tp5\nimeth\t=\t1\n;aplk\tpluck\tkenv, kfreq, ifreq, 22, imeth;, .7, .3\n\n;ktrans\tinit\t4\nktrans\texpseg\t6, idur, 5.6\naspd\tinit\t0\nkoct\tinit\t.35\nkoct\tlinseg\t0, idur, .1\nkband\tinit\t100\nkband\texpseg\t20, idur, 100\nkris\tinit\t.001\nkdur\tinit\t.02\n;kdur\tinit\t.02\nkdec\tinit\t.002\niolaps\t=\t250\nia\t=\t22\nib\t=\t23\n\nafogl\tfog\t1, kfreq, ktrans, aspd, koct, kband, kris, kdur, kdec, iolaps, ia, ib, idur, 0, 1\nafogh\tfog\t1, kfreq, ktrans*3, aspd, koct, kband, kris, kdur, kdec, iolaps, ia, ib, idur, 0, 1\nafog\t=\t(afogl + afogh) / 2\nkfog\tdownsamp afog, 8\n;kfog\t=\tk(afog) * .2\nkplkf\t=\tkfog*kfreq*.25 + kfreq\nafmplk\tpluck\t1, kplkf, ifreq, 22, 1\n\n;adist\tdistort1 afog, .8, .2, .4, -.02\n;adist\tdistort1 afog, 1.8, .2, .004, -.2\nadel\tdelayr\t.02\nadel1\tdeltap3\t.003\nadel2\tdeltap3\t.0047\nadel3\tdeltap3\t.0055\nadel4\tdeltap3\t.0062\nadel5\tdeltap3\t.007\nadel6\tdeltap3\t.0081\n\tdelayw\tafog\n\nadell\t=\t(adel + adel1 + adel3 + adel5)/4\nadelr\t=\t(adel + adel2 + adel4 + adel6)/4\n;alim\tlimit\taplk, -.1 * 0dbfs, .1 * 0dbfs\n;ares\tresonr\talim, 800, 30, 1\nascll\t=\tadell * kenv\nasclr\t=\tadelr * kenv\naleft\t=\tadell * kenv\naright\t=\tadelr * kenv\nadistl\tdistort1 ascll, 1.8, .1, .4, -.2\nadistr\tdistort1 asclr, 1.8, .1, .4, -.2\naleft\t=\tadistl\naright\t=\tadistr\n\toutrg\t1, aleft, aright\n\tendin\n\n\n\tinstr 33\n\naleft\tinit\t0\naright\tinit\t0\nidur\t=\tp3\niamp\t=\tampdb(p4) ;* .8\nifreq\t=\tp5\nkfreq\tinit\tifreq\n;kswitch\t=\t(kfreq > 294 ? 1 : 0)\naenv\ttranseg\t0, .004, 1, iamp, p3-.01, 1, .8*iamp, .006, 1, 0\naplk1\tpluck\t1, kfreq, ifreq, 11, 3, 0.0001\n;aplk2\tpluck\t1, kfreq * 1.001, ifreq, 11, 3, .0003\n;aplk3\tpluck\t1, kfreq * .995, ifreq, 11, 3, .0004\n;aosc\toscil\t1, ifreq, 11\n;afilt\trezzy\taosc, 350, 20\nkfc\t=\tifreq * 3\n;kfc\t=\t250\n;aplk\t=\t(aplk1+aplk2+aplk3)/3\nafilt\trezzy\taplk1, kfc, 5\nadist\tdistort1 afilt, 1.6, .4, .2, -.03\nascl\t=\tadist * aenv\naleft\t=\tascl\naright\t=\taleft\n\n\toutrg\t1, aleft, aright\n\tendin\n\n\n\tinstr 44\n\tendin\n\n\n\tinstr 55\n\naleft\tinit\t0\naright\tinit\t0\n\toutrg\t1, aleft, aright\n\tendin\n\n\n\tinstr 66\n\naleft\tinit\t0\naright\tinit\t0\n\toutrg\t1, aleft, aright\n\tendin\n\n\n\tinstr 77\n\naleft\tinit\t0\naright\tinit\t0\n\toutrg\t1, aleft, aright\n\tendin\n\n\n\tinstr 88\n\naleft\tinit\t0\naright\tinit\t0\n\toutrg\t1, aleft, aright\n\tendin\n\n\n\n\n</CsInstruments>\n<CsScore>\nf1 3600 8 10 1\nf2 0 512 10 1 1 1 1\nf3 0 512 10 1 .2 .4\nf11 0 512 10 1 .3 .1 .07\n;f22 0 512 -7 0 16 1 224 1 32 -1 224 -1 16 0\nf22 0 512 10 1 .2 .3; .12 ;.5\nf23 0 512 19 .5 .5 270 .5\n;q11 0\n;q22 0\n;q33 0\n#define I2P01(T) #\ni2 [$T + 6.667] .333 74\ni2 [$T + 7] .667 77\ni2 [$T + 7.667] .333 80\n#\n#define I2P02(T) #\ni2 [$T + .667] .333 80\ni2 [$T + 1] .667 84\ni2 [$T + 1.667] .333 80\ni2 [$T + 2] 1 86\ni2 [$T + 3] 1.667 86\ni2 [$T + 4.667] .333 80\ni2 [$T + 5] .667 84\ni2 [$T + 5.667] 1 80\ni2 [$T + 6.667] .333 80\ni2 [$T + 7] 1 84\n#\n\n#define I3P01(T) #\ni3 [$T + 0] .65 90\ni3 [$T + 2] .65 90\ni3 [$T + 3] .65 90\ni3 [$T + 4] .65 90\ni3 [$T + 6] .65 90\n#\n\n#define I4P01(T) #\ni4 [$T + 0] .667 74\ni4 [$T + .667] .333 69\ni4 [$T + 1] .667 74\ni4 [$T + 1.667] .333 69\ni4 [$T + 2] .667 74\ni4 [$T + 2.667] .333 69\ni4 [$T + 3] .667 74\ni4 [$T + 3.667] .333 69\ni4 [$T + 4] .667 74\ni4 [$T + 4.667] .333 69\ni4 [$T + 5] .667 74\ni4 [$T + 5.667] .333 69\ni4 [$T + 6] .667 74\ni4 [$T + 6.667] .333 69\ni4 [$T + 7] .667 74\ni4 [$T + 7.667] .333 69\n#\n#define P01(T) #\ni2 [$T + .667]     .333    80\ni2 [$T + 1] .667 84\ni2 [$T + 1.667] .333 80\ni2 [$T + 2] 1 86\ni2 [$T + 3] 1.667 86\ni2 [$T + 4.667] .333 80\ni2 [$T + 5] .667 84\ni2 [$T + 5.667] 1 80\ni2 [$T + 6.667] .333 80\ni2 [$T + 7] 1 84\n\ni3 [$T + 0] .65 90\ni3 [$T + 2] .65 90\ni3 [$T + 3] .65 90\ni3 [$T + 4] .65 90\ni3 [$T + 6] .65 90\n\ni4 [$T + 0] .667 74\ni4 [$T + .667] .333 69\ni4 [$T + 1] .667 74\ni4 [$T + 1.667] .333 69\ni4 [$T + 2] .667 74\ni4 [$T + 2.667] .333 69\ni4 [$T + 3] .667 74\ni4 [$T + 3.667] .333 69\ni4 [$T + 4] .667 74\ni4 [$T + 4.667] .333 69\ni4 [$T + 5] .667 74\ni4 [$T + 5.667] .333 69\ni4 [$T + 6] .667 74\ni4 [$T + 6.667] .333 69\ni4 [$T + 7] .667 74\ni4 [$T + 7.667] .333 69\n#\n\n;i1\t0\t1\n\ni44 [$RATSTART * 60/116] 400\n\n$I3P01(0)\n$I3P01(8)\n$I2P01(8)\n$P01(16)\n$P01(24)\n$P01(32)\n$P01(40)\n$P01(48)\n$P01(56)\n$P01(64)\n$P01(72)\n$P01(80)\n$P01(88)\n$P01(96)\n$P01(104)\n$P01(112)\n$P01(120)\n$P01(128)\n$P01(136)\n$P01(144)\n$P01(152)\n$P01(160)\n$P01(168)\n$P01(176)\n$P01(184)\n$P01(192)\n$P01(200)\n$P01(208)\n$P01(216)\n$P01(224)\n$P01(232)\n$P01(240)\n$P01(248)\n$P01(256)\n$P01(264)\n$P01(272)\n$P01(280)\n$P01(288)\n$P01(296)\n$P01(304)\n$P01(312)\n$P01(320)\n$P01(328)\n$P01(336)\n$P01(344)\n$P01(352)\n$P01(360)\n$P01(368)\n\n\n</CsScore>\n</CsoundSynthesizer>\n'
p0
.I01
.